TMS320C2000 Assembler PC v6.2.3 Thu Jun 25 17:41:27 2015

Tools Copyright (c) 1996-2013 Texas Instruments Incorporated
C:\Users\a0220341\AppData\Local\Temp\0958811                         PAGE    1

       1              ;***************************************************************
       2              ;* TMS320C2000 C/C++ Codegen                         PC v6.2.3 *
       3              ;* Date/Time created: Thu Jun 25 17:41:27 2015                 *
       4              ;***************************************************************
       5                      .compiler_opts --float_support=softlib --hll_source=on --mem_model:code=flat --mem_model:data=large -
       6        0002  FP      .set    XAR2
       7              
       8              $C$DW$CU        .dwtag  DW_TAG_compile_unit
       9                      .dwattr $C$DW$CU, DW_AT_name("D:/victor TI/Customer issue/Zero/4inOne/Code/sw/modules/filter/src/32b/
      10                      .dwattr $C$DW$CU, DW_AT_producer("TMS320C2000 C/C++ Codegen PC v6.2.3 Copyright (c) 1996-2013 Texas I
      11                      .dwattr $C$DW$CU, DW_AT_TI_version(0x01)
      12                      .dwattr $C$DW$CU, DW_AT_comp_dir("D:\victor TI\Customer issue\Zero\4inOne\Code\sw\solutions\instaspin
      13              ;       C:\ti\ccsv6\tools\compiler\ti-cgt-c2000_6.2.3\bin\opt2000.exe C:\\Users\\a0220341\\AppData\\Local\\Te
      14              ;       C:\ti\ccsv6\tools\compiler\ti-cgt-c2000_6.2.3\bin\ac2000.exe -@C:\\Users\\a0220341\\AppData\\Local\\T
      15 00000000               .sect   ".text"
      16                      .global _FILTER_FO_setNumCoeffs
      17              
      18              $C$DW$1 .dwtag  DW_TAG_subprogram, DW_AT_name("FILTER_FO_setNumCoeffs")
      19                      .dwattr $C$DW$1, DW_AT_low_pc(_FILTER_FO_setNumCoeffs)
      20                      .dwattr $C$DW$1, DW_AT_high_pc(0x00)
      21                      .dwattr $C$DW$1, DW_AT_TI_symbol_name("_FILTER_FO_setNumCoeffs")
      22                      .dwattr $C$DW$1, DW_AT_external
      23                      .dwattr $C$DW$1, DW_AT_TI_begin_file("D:/victor TI/Customer issue/Zero/4inOne/Code/sw/modules/filter/
      24                      .dwattr $C$DW$1, DW_AT_TI_begin_line(0x85)
      25                      .dwattr $C$DW$1, DW_AT_TI_begin_column(0x06)
      26                      .dwattr $C$DW$1, DW_AT_TI_max_frame_size(-2)
      27                      .dwpsn  file "D:/victor TI/Customer issue/Zero/4inOne/Code/sw/modules/filter/src/32b/filter_fo.c",lin
      28              
      29                      .dwfde $C$DW$CIE, _FILTER_FO_setNumCoeffs
      30              $C$DW$2 .dwtag  DW_TAG_formal_parameter, DW_AT_name("handle")
      31                      .dwattr $C$DW$2, DW_AT_TI_symbol_name("_handle")
      32                      .dwattr $C$DW$2, DW_AT_type(*$C$DW$T$25)
      33                      .dwattr $C$DW$2, DW_AT_location[DW_OP_reg12]
      34              $C$DW$3 .dwtag  DW_TAG_formal_parameter, DW_AT_name("b0")
      35                      .dwattr $C$DW$3, DW_AT_TI_symbol_name("_b0")
      36                      .dwattr $C$DW$3, DW_AT_type(*$C$DW$T$36)
      37                      .dwattr $C$DW$3, DW_AT_location[DW_OP_reg0]
      38              $C$DW$4 .dwtag  DW_TAG_formal_parameter, DW_AT_name("b1")
      39                      .dwattr $C$DW$4, DW_AT_TI_symbol_name("_b1")
      40                      .dwattr $C$DW$4, DW_AT_type(*$C$DW$T$36)
      41                      .dwattr $C$DW$4, DW_AT_location[DW_OP_breg20 -4]
      42              
      43              ;***************************************************************
      44              ;* FNAME: _FILTER_FO_setNumCoeffs       FR SIZE:   0           *
      45              ;*                                                             *
      46              ;* FUNCTION ENVIRONMENT                                        *
      47              ;*                                                             *
      48              ;* FUNCTION PROPERTIES                                         *
      49              ;*                            0 Parameter,  0 Auto,  0 SOE     *
      50              ;***************************************************************
      51              
      52              _FILTER_FO_setNumCoeffs:
      53              ;* AR4   assigned to _handle
      54              $C$DW$5 .dwtag  DW_TAG_variable, DW_AT_name("handle")
      55                      .dwattr $C$DW$5, DW_AT_TI_symbol_name("_handle")
TMS320C2000 Assembler PC v6.2.3 Thu Jun 25 17:41:27 2015

Tools Copyright (c) 1996-2013 Texas Instruments Incorporated
C:\Users\a0220341\AppData\Local\Temp\0958811                         PAGE    2

      56                      .dwattr $C$DW$5, DW_AT_type(*$C$DW$T$26)
      57                      .dwattr $C$DW$5, DW_AT_location[DW_OP_reg12]
      58              ;* AL    assigned to _b0
      59              $C$DW$6 .dwtag  DW_TAG_variable, DW_AT_name("b0")
      60                      .dwattr $C$DW$6, DW_AT_TI_symbol_name("_b0")
      61                      .dwattr $C$DW$6, DW_AT_type(*$C$DW$T$36)
      62                      .dwattr $C$DW$6, DW_AT_location[DW_OP_reg0]
      63              ;* AR6   assigned to _b1
      64              $C$DW$7 .dwtag  DW_TAG_variable, DW_AT_name("b1")
      65                      .dwattr $C$DW$7, DW_AT_TI_symbol_name("_b1")
      66                      .dwattr $C$DW$7, DW_AT_type(*$C$DW$T$36)
      67                      .dwattr $C$DW$7, DW_AT_location[DW_OP_reg16]
      68                      .dwcfi  cfa_offset, -2
      69                      .dwcfi  save_reg_to_mem, 26, 0
      70                      .dwcfi  save_reg_to_reg, 78, 26
      71 00000000 C444          MOVL      XAR6,*-SP[4]          ; [CPU_] |134| 
      72                      .dwpsn  file "D:/victor TI/Customer issue/Zero/4inOne/Code/sw/modules/filter/src/32b/filter_fo.c",lin
      73 00000001 1ED4          MOVL      *+XAR4[2],ACC         ; [CPU_] |138| 
      74                      .dwpsn  file "D:/victor TI/Customer issue/Zero/4inOne/Code/sw/modules/filter/src/32b/filter_fo.c",lin
      75 00000002 C2E4          MOVL      *+XAR4[4],XAR6        ; [CPU_] |139| 
      76              $C$DW$8 .dwtag  DW_TAG_TI_branch
      77                      .dwattr $C$DW$8, DW_AT_low_pc(0x00)
      78                      .dwattr $C$DW$8, DW_AT_TI_return
      79 00000003 0006          LRETR     ; [CPU_] 
      80                      ; return occurs ; [] 
      81                      .dwattr $C$DW$1, DW_AT_TI_end_file("D:/victor TI/Customer issue/Zero/4inOne/Code/sw/modules/filter/sr
      82                      .dwattr $C$DW$1, DW_AT_TI_end_line(0x8e)
      83                      .dwattr $C$DW$1, DW_AT_TI_end_column(0x01)
      84                      .dwendentry
      85                      .dwendtag $C$DW$1
      86              
      87 00000004               .sect   ".text"
      88                      .global _FILTER_FO_setInitialConditions
      89              
      90              $C$DW$9 .dwtag  DW_TAG_subprogram, DW_AT_name("FILTER_FO_setInitialConditions")
      91                      .dwattr $C$DW$9, DW_AT_low_pc(_FILTER_FO_setInitialConditions)
      92                      .dwattr $C$DW$9, DW_AT_high_pc(0x00)
      93                      .dwattr $C$DW$9, DW_AT_TI_symbol_name("_FILTER_FO_setInitialConditions")
      94                      .dwattr $C$DW$9, DW_AT_external
      95                      .dwattr $C$DW$9, DW_AT_TI_begin_file("D:/victor TI/Customer issue/Zero/4inOne/Code/sw/modules/filter/
      96                      .dwattr $C$DW$9, DW_AT_TI_begin_line(0x78)
      97                      .dwattr $C$DW$9, DW_AT_TI_begin_column(0x06)
      98                      .dwattr $C$DW$9, DW_AT_TI_max_frame_size(-2)
      99                      .dwpsn  file "D:/victor TI/Customer issue/Zero/4inOne/Code/sw/modules/filter/src/32b/filter_fo.c",lin
     100              
     101                      .dwfde $C$DW$CIE, _FILTER_FO_setInitialConditions
     102              $C$DW$10        .dwtag  DW_TAG_formal_parameter, DW_AT_name("handle")
     103                      .dwattr $C$DW$10, DW_AT_TI_symbol_name("_handle")
     104                      .dwattr $C$DW$10, DW_AT_type(*$C$DW$T$25)
     105                      .dwattr $C$DW$10, DW_AT_location[DW_OP_reg12]
     106              $C$DW$11        .dwtag  DW_TAG_formal_parameter, DW_AT_name("x1")
     107                      .dwattr $C$DW$11, DW_AT_TI_symbol_name("_x1")
     108                      .dwattr $C$DW$11, DW_AT_type(*$C$DW$T$36)
     109                      .dwattr $C$DW$11, DW_AT_location[DW_OP_reg0]
     110              $C$DW$12        .dwtag  DW_TAG_formal_parameter, DW_AT_name("y1")
TMS320C2000 Assembler PC v6.2.3 Thu Jun 25 17:41:27 2015

Tools Copyright (c) 1996-2013 Texas Instruments Incorporated
C:\Users\a0220341\AppData\Local\Temp\0958811                         PAGE    3

     111                      .dwattr $C$DW$12, DW_AT_TI_symbol_name("_y1")
     112                      .dwattr $C$DW$12, DW_AT_type(*$C$DW$T$36)
     113                      .dwattr $C$DW$12, DW_AT_location[DW_OP_breg20 -4]
     114              
     115              ;***************************************************************
     116              ;* FNAME: _FILTER_FO_setInitialConditions FR SIZE:   0           *
     117              ;*                                                             *
     118              ;* FUNCTION ENVIRONMENT                                        *
     119              ;*                                                             *
     120              ;* FUNCTION PROPERTIES                                         *
     121              ;*                            0 Parameter,  0 Auto,  0 SOE     *
     122              ;***************************************************************
     123              
     124              _FILTER_FO_setInitialConditions:
     125              ;* AR4   assigned to _handle
     126              $C$DW$13        .dwtag  DW_TAG_variable, DW_AT_name("handle")
     127                      .dwattr $C$DW$13, DW_AT_TI_symbol_name("_handle")
     128                      .dwattr $C$DW$13, DW_AT_type(*$C$DW$T$26)
     129                      .dwattr $C$DW$13, DW_AT_location[DW_OP_reg12]
     130              ;* AL    assigned to _x1
     131              $C$DW$14        .dwtag  DW_TAG_variable, DW_AT_name("x1")
     132                      .dwattr $C$DW$14, DW_AT_TI_symbol_name("_x1")
     133                      .dwattr $C$DW$14, DW_AT_type(*$C$DW$T$36)
     134                      .dwattr $C$DW$14, DW_AT_location[DW_OP_reg0]
     135              ;* AR6   assigned to _y1
     136              $C$DW$15        .dwtag  DW_TAG_variable, DW_AT_name("y1")
     137                      .dwattr $C$DW$15, DW_AT_TI_symbol_name("_y1")
     138                      .dwattr $C$DW$15, DW_AT_type(*$C$DW$T$36)
     139                      .dwattr $C$DW$15, DW_AT_location[DW_OP_reg16]
     140                      .dwcfi  cfa_offset, -2
     141                      .dwcfi  save_reg_to_mem, 26, 0
     142                      .dwcfi  save_reg_to_reg, 78, 26
     143 00000004 C444          MOVL      XAR6,*-SP[4]          ; [CPU_] |121| 
     144                      .dwpsn  file "D:/victor TI/Customer issue/Zero/4inOne/Code/sw/modules/filter/src/32b/filter_fo.c",lin
     145 00000005 D008          MOVB      XAR0,#8               ; [CPU_] |127| 
     146                      .dwpsn  file "D:/victor TI/Customer issue/Zero/4inOne/Code/sw/modules/filter/src/32b/filter_fo.c",lin
     147 00000006 1EF4          MOVL      *+XAR4[6],ACC         ; [CPU_] |125| 
     148                      .dwpsn  file "D:/victor TI/Customer issue/Zero/4inOne/Code/sw/modules/filter/src/32b/filter_fo.c",lin
     149 00000007 C294          MOVL      *+XAR4[AR0],XAR6      ; [CPU_] |127| 
     150              $C$DW$16        .dwtag  DW_TAG_TI_branch
     151                      .dwattr $C$DW$16, DW_AT_low_pc(0x00)
     152                      .dwattr $C$DW$16, DW_AT_TI_return
     153 00000008 0006          LRETR     ; [CPU_] 
     154                      ; return occurs ; [] 
     155                      .dwattr $C$DW$9, DW_AT_TI_end_file("D:/victor TI/Customer issue/Zero/4inOne/Code/sw/modules/filter/sr
     156                      .dwattr $C$DW$9, DW_AT_TI_end_line(0x82)
     157                      .dwattr $C$DW$9, DW_AT_TI_end_column(0x01)
     158                      .dwendentry
     159                      .dwendtag $C$DW$9
     160              
     161 00000009               .sect   ".text"
     162                      .global _FILTER_FO_setDenCoeffs
     163              
     164              $C$DW$17        .dwtag  DW_TAG_subprogram, DW_AT_name("FILTER_FO_setDenCoeffs")
     165                      .dwattr $C$DW$17, DW_AT_low_pc(_FILTER_FO_setDenCoeffs)
TMS320C2000 Assembler PC v6.2.3 Thu Jun 25 17:41:27 2015

Tools Copyright (c) 1996-2013 Texas Instruments Incorporated
C:\Users\a0220341\AppData\Local\Temp\0958811                         PAGE    4

     166                      .dwattr $C$DW$17, DW_AT_high_pc(0x00)
     167                      .dwattr $C$DW$17, DW_AT_TI_symbol_name("_FILTER_FO_setDenCoeffs")
     168                      .dwattr $C$DW$17, DW_AT_external
     169                      .dwattr $C$DW$17, DW_AT_TI_begin_file("D:/victor TI/Customer issue/Zero/4inOne/Code/sw/modules/filter
     170                      .dwattr $C$DW$17, DW_AT_TI_begin_line(0x6d)
     171                      .dwattr $C$DW$17, DW_AT_TI_begin_column(0x06)
     172                      .dwattr $C$DW$17, DW_AT_TI_max_frame_size(-2)
     173                      .dwpsn  file "D:/victor TI/Customer issue/Zero/4inOne/Code/sw/modules/filter/src/32b/filter_fo.c",lin
     174              
     175                      .dwfde $C$DW$CIE, _FILTER_FO_setDenCoeffs
     176              $C$DW$18        .dwtag  DW_TAG_formal_parameter, DW_AT_name("handle")
     177                      .dwattr $C$DW$18, DW_AT_TI_symbol_name("_handle")
     178                      .dwattr $C$DW$18, DW_AT_type(*$C$DW$T$25)
     179                      .dwattr $C$DW$18, DW_AT_location[DW_OP_reg12]
     180              $C$DW$19        .dwtag  DW_TAG_formal_parameter, DW_AT_name("a1")
     181                      .dwattr $C$DW$19, DW_AT_TI_symbol_name("_a1")
     182                      .dwattr $C$DW$19, DW_AT_type(*$C$DW$T$36)
     183                      .dwattr $C$DW$19, DW_AT_location[DW_OP_reg0]
     184              
     185              ;***************************************************************
     186              ;* FNAME: _FILTER_FO_setDenCoeffs       FR SIZE:   0           *
     187              ;*                                                             *
     188              ;* FUNCTION ENVIRONMENT                                        *
     189              ;*                                                             *
     190              ;* FUNCTION PROPERTIES                                         *
     191              ;*                            0 Parameter,  0 Auto,  0 SOE     *
     192              ;***************************************************************
     193              
     194              _FILTER_FO_setDenCoeffs:
     195              ;* AR4   assigned to _handle
     196              $C$DW$20        .dwtag  DW_TAG_variable, DW_AT_name("handle")
     197                      .dwattr $C$DW$20, DW_AT_TI_symbol_name("_handle")
     198                      .dwattr $C$DW$20, DW_AT_type(*$C$DW$T$26)
     199                      .dwattr $C$DW$20, DW_AT_location[DW_OP_reg12]
     200              ;* AL    assigned to _a1
     201              $C$DW$21        .dwtag  DW_TAG_variable, DW_AT_name("a1")
     202                      .dwattr $C$DW$21, DW_AT_TI_symbol_name("_a1")
     203                      .dwattr $C$DW$21, DW_AT_type(*$C$DW$T$36)
     204                      .dwattr $C$DW$21, DW_AT_location[DW_OP_reg0]
     205                      .dwcfi  cfa_offset, -2
     206                      .dwcfi  save_reg_to_mem, 26, 0
     207                      .dwcfi  save_reg_to_reg, 78, 26
     208                      .dwpsn  file "D:/victor TI/Customer issue/Zero/4inOne/Code/sw/modules/filter/src/32b/filter_fo.c",lin
     209 00000009 1EC4          MOVL      *+XAR4[0],ACC         ; [CPU_] |114| 
     210              $C$DW$22        .dwtag  DW_TAG_TI_branch
     211                      .dwattr $C$DW$22, DW_AT_low_pc(0x00)
     212                      .dwattr $C$DW$22, DW_AT_TI_return
     213 0000000a 0006          LRETR     ; [CPU_] 
     214                      ; return occurs ; [] 
     215                      .dwattr $C$DW$17, DW_AT_TI_end_file("D:/victor TI/Customer issue/Zero/4inOne/Code/sw/modules/filter/s
     216                      .dwattr $C$DW$17, DW_AT_TI_end_line(0x75)
     217                      .dwattr $C$DW$17, DW_AT_TI_end_column(0x01)
     218                      .dwendentry
     219                      .dwendtag $C$DW$17
     220              
TMS320C2000 Assembler PC v6.2.3 Thu Jun 25 17:41:27 2015

Tools Copyright (c) 1996-2013 Texas Instruments Incorporated
C:\Users\a0220341\AppData\Local\Temp\0958811                         PAGE    5

     221 0000000b               .sect   ".text"
     222                      .global _FILTER_FO_init
     223              
     224              $C$DW$23        .dwtag  DW_TAG_subprogram, DW_AT_name("FILTER_FO_init")
     225                      .dwattr $C$DW$23, DW_AT_low_pc(_FILTER_FO_init)
     226                      .dwattr $C$DW$23, DW_AT_high_pc(0x00)
     227                      .dwattr $C$DW$23, DW_AT_TI_symbol_name("_FILTER_FO_init")
     228                      .dwattr $C$DW$23, DW_AT_external
     229                      .dwattr $C$DW$23, DW_AT_type(*$C$DW$T$25)
     230                      .dwattr $C$DW$23, DW_AT_TI_begin_file("D:/victor TI/Customer issue/Zero/4inOne/Code/sw/modules/filter
     231                      .dwattr $C$DW$23, DW_AT_TI_begin_line(0x5e)
     232                      .dwattr $C$DW$23, DW_AT_TI_begin_column(0x12)
     233                      .dwattr $C$DW$23, DW_AT_TI_max_frame_size(-2)
     234                      .dwpsn  file "D:/victor TI/Customer issue/Zero/4inOne/Code/sw/modules/filter/src/32b/filter_fo.c",lin
     235              
     236                      .dwfde $C$DW$CIE, _FILTER_FO_init
     237              $C$DW$24        .dwtag  DW_TAG_formal_parameter, DW_AT_name("pMemory")
     238                      .dwattr $C$DW$24, DW_AT_TI_symbol_name("_pMemory")
     239                      .dwattr $C$DW$24, DW_AT_type(*$C$DW$T$3)
     240                      .dwattr $C$DW$24, DW_AT_location[DW_OP_reg12]
     241              $C$DW$25        .dwtag  DW_TAG_formal_parameter, DW_AT_name("numBytes")
     242                      .dwattr $C$DW$25, DW_AT_TI_symbol_name("_numBytes")
     243                      .dwattr $C$DW$25, DW_AT_type(*$C$DW$T$28)
     244                      .dwattr $C$DW$25, DW_AT_location[DW_OP_reg0]
     245              
     246              ;***************************************************************
     247              ;* FNAME: _FILTER_FO_init               FR SIZE:   0           *
     248              ;*                                                             *
     249              ;* FUNCTION ENVIRONMENT                                        *
     250              ;*                                                             *
     251              ;* FUNCTION PROPERTIES                                         *
     252              ;*                            0 Parameter,  0 Auto,  0 SOE     *
     253              ;***************************************************************
     254              
     255              _FILTER_FO_init:
     256              ;* AR6   assigned to _numBytes
     257              $C$DW$26        .dwtag  DW_TAG_variable, DW_AT_name("numBytes")
     258                      .dwattr $C$DW$26, DW_AT_TI_symbol_name("_numBytes")
     259                      .dwattr $C$DW$26, DW_AT_type(*$C$DW$T$28)
     260                      .dwattr $C$DW$26, DW_AT_location[DW_OP_reg16]
     261              ;* AR4   assigned to _pMemory
     262              $C$DW$27        .dwtag  DW_TAG_variable, DW_AT_name("pMemory")
     263                      .dwattr $C$DW$27, DW_AT_TI_symbol_name("_pMemory")
     264                      .dwattr $C$DW$27, DW_AT_type(*$C$DW$T$32)
     265                      .dwattr $C$DW$27, DW_AT_location[DW_OP_reg12]
     266                      .dwcfi  cfa_offset, -2
     267                      .dwcfi  save_reg_to_mem, 26, 0
     268                      .dwcfi  save_reg_to_reg, 78, 26
     269 0000000b 1EA6          MOVL      XAR6,ACC              ; [CPU_] |95| 
     270                      .dwpsn  file "D:/victor TI/Customer issue/Zero/4inOne/Code/sw/modules/filter/src/32b/filter_fo.c",lin
     271 0000000c 020A          MOVB      ACC,#10               ; [CPU_] |100| 
     272 0000000d 0FA6          CMPL      ACC,XAR6              ; [CPU_] |100| 
     273 0000000e 6902          B         $C$L1,LOS             ; [CPU_] |100| 
     274                      ; branchcc occurs ; [] |100| 
     275 0000000f D400          MOVB      XAR4,#0               ; [CPU_] |100| 
TMS320C2000 Assembler PC v6.2.3 Thu Jun 25 17:41:27 2015

Tools Copyright (c) 1996-2013 Texas Instruments Incorporated
C:\Users\a0220341\AppData\Local\Temp\0958811                         PAGE    6

     276              $C$L1:    
     277              $C$DW$28        .dwtag  DW_TAG_TI_branch
     278                      .dwattr $C$DW$28, DW_AT_low_pc(0x00)
     279                      .dwattr $C$DW$28, DW_AT_TI_return
     280 00000010 0006          LRETR     ; [CPU_] 
     281                      ; return occurs ; [] 
     282                      .dwattr $C$DW$23, DW_AT_TI_end_file("D:/victor TI/Customer issue/Zero/4inOne/Code/sw/modules/filter/s
     283                      .dwattr $C$DW$23, DW_AT_TI_end_line(0x6a)
     284                      .dwattr $C$DW$23, DW_AT_TI_end_column(0x01)
     285                      .dwendentry
     286                      .dwendtag $C$DW$23
     287              
     288 00000011               .sect   ".text"
     289                      .global _FILTER_FO_getNumCoeffs
     290              
     291              $C$DW$29        .dwtag  DW_TAG_subprogram, DW_AT_name("FILTER_FO_getNumCoeffs")
     292                      .dwattr $C$DW$29, DW_AT_low_pc(_FILTER_FO_getNumCoeffs)
     293                      .dwattr $C$DW$29, DW_AT_high_pc(0x00)
     294                      .dwattr $C$DW$29, DW_AT_TI_symbol_name("_FILTER_FO_getNumCoeffs")
     295                      .dwattr $C$DW$29, DW_AT_external
     296                      .dwattr $C$DW$29, DW_AT_TI_begin_file("D:/victor TI/Customer issue/Zero/4inOne/Code/sw/modules/filter
     297                      .dwattr $C$DW$29, DW_AT_TI_begin_line(0x52)
     298                      .dwattr $C$DW$29, DW_AT_TI_begin_column(0x06)
     299                      .dwattr $C$DW$29, DW_AT_TI_max_frame_size(-2)
     300                      .dwpsn  file "D:/victor TI/Customer issue/Zero/4inOne/Code/sw/modules/filter/src/32b/filter_fo.c",lin
     301              
     302                      .dwfde $C$DW$CIE, _FILTER_FO_getNumCoeffs
     303              $C$DW$30        .dwtag  DW_TAG_formal_parameter, DW_AT_name("handle")
     304                      .dwattr $C$DW$30, DW_AT_TI_symbol_name("_handle")
     305                      .dwattr $C$DW$30, DW_AT_type(*$C$DW$T$25)
     306                      .dwattr $C$DW$30, DW_AT_location[DW_OP_reg12]
     307              $C$DW$31        .dwtag  DW_TAG_formal_parameter, DW_AT_name("pb0")
     308                      .dwattr $C$DW$31, DW_AT_TI_symbol_name("_pb0")
     309                      .dwattr $C$DW$31, DW_AT_type(*$C$DW$T$33)
     310                      .dwattr $C$DW$31, DW_AT_location[DW_OP_reg14]
     311              $C$DW$32        .dwtag  DW_TAG_formal_parameter, DW_AT_name("pb1")
     312                      .dwattr $C$DW$32, DW_AT_TI_symbol_name("_pb1")
     313                      .dwattr $C$DW$32, DW_AT_type(*$C$DW$T$33)
     314                      .dwattr $C$DW$32, DW_AT_location[DW_OP_breg20 -4]
     315              
     316              ;***************************************************************
     317              ;* FNAME: _FILTER_FO_getNumCoeffs       FR SIZE:   0           *
     318              ;*                                                             *
     319              ;* FUNCTION ENVIRONMENT                                        *
     320              ;*                                                             *
     321              ;* FUNCTION PROPERTIES                                         *
     322              ;*                            0 Parameter,  0 Auto,  0 SOE     *
     323              ;***************************************************************
     324              
     325              _FILTER_FO_getNumCoeffs:
     326              ;* AR4   assigned to _handle
     327              $C$DW$33        .dwtag  DW_TAG_variable, DW_AT_name("handle")
     328                      .dwattr $C$DW$33, DW_AT_TI_symbol_name("_handle")
     329                      .dwattr $C$DW$33, DW_AT_type(*$C$DW$T$26)
     330                      .dwattr $C$DW$33, DW_AT_location[DW_OP_reg12]
TMS320C2000 Assembler PC v6.2.3 Thu Jun 25 17:41:27 2015

Tools Copyright (c) 1996-2013 Texas Instruments Incorporated
C:\Users\a0220341\AppData\Local\Temp\0958811                         PAGE    7

     331              ;* AR5   assigned to _pb0
     332              $C$DW$34        .dwtag  DW_TAG_variable, DW_AT_name("pb0")
     333                      .dwattr $C$DW$34, DW_AT_TI_symbol_name("_pb0")
     334                      .dwattr $C$DW$34, DW_AT_type(*$C$DW$T$42)
     335                      .dwattr $C$DW$34, DW_AT_location[DW_OP_reg14]
     336              ;* AR6   assigned to _pb1
     337              $C$DW$35        .dwtag  DW_TAG_variable, DW_AT_name("pb1")
     338                      .dwattr $C$DW$35, DW_AT_TI_symbol_name("_pb1")
     339                      .dwattr $C$DW$35, DW_AT_type(*$C$DW$T$42)
     340                      .dwattr $C$DW$35, DW_AT_location[DW_OP_reg16]
     341                      .dwcfi  cfa_offset, -2
     342                      .dwcfi  save_reg_to_mem, 26, 0
     343                      .dwcfi  save_reg_to_reg, 78, 26
     344 00000011 C444          MOVL      XAR6,*-SP[4]          ; [CPU_] |83| 
     345                      .dwpsn  file "D:/victor TI/Customer issue/Zero/4inOne/Code/sw/modules/filter/src/32b/filter_fo.c",lin
     346 00000012 06D4          MOVL      ACC,*+XAR4[2]         ; [CPU_] |87| 
     347 00000013 1EC5          MOVL      *+XAR5[0],ACC         ; [CPU_] |87| 
     348                      .dwpsn  file "D:/victor TI/Customer issue/Zero/4inOne/Code/sw/modules/filter/src/32b/filter_fo.c",lin
     349 00000014 06E4          MOVL      ACC,*+XAR4[4]         ; [CPU_] |88| 
     350 00000015 1EC6          MOVL      *+XAR6[0],ACC         ; [CPU_] |88| 
     351              $C$DW$36        .dwtag  DW_TAG_TI_branch
     352                      .dwattr $C$DW$36, DW_AT_low_pc(0x00)
     353                      .dwattr $C$DW$36, DW_AT_TI_return
     354 00000016 0006          LRETR     ; [CPU_] 
     355                      ; return occurs ; [] 
     356                      .dwattr $C$DW$29, DW_AT_TI_end_file("D:/victor TI/Customer issue/Zero/4inOne/Code/sw/modules/filter/s
     357                      .dwattr $C$DW$29, DW_AT_TI_end_line(0x5b)
     358                      .dwattr $C$DW$29, DW_AT_TI_end_column(0x01)
     359                      .dwendentry
     360                      .dwendtag $C$DW$29
     361              
     362 00000017               .sect   ".text"
     363                      .global _FILTER_FO_getInitialConditions
     364              
     365              $C$DW$37        .dwtag  DW_TAG_subprogram, DW_AT_name("FILTER_FO_getInitialConditions")
     366                      .dwattr $C$DW$37, DW_AT_low_pc(_FILTER_FO_getInitialConditions)
     367                      .dwattr $C$DW$37, DW_AT_high_pc(0x00)
     368                      .dwattr $C$DW$37, DW_AT_TI_symbol_name("_FILTER_FO_getInitialConditions")
     369                      .dwattr $C$DW$37, DW_AT_external
     370                      .dwattr $C$DW$37, DW_AT_TI_begin_file("D:/victor TI/Customer issue/Zero/4inOne/Code/sw/modules/filter
     371                      .dwattr $C$DW$37, DW_AT_TI_begin_line(0x45)
     372                      .dwattr $C$DW$37, DW_AT_TI_begin_column(0x06)
     373                      .dwattr $C$DW$37, DW_AT_TI_max_frame_size(-2)
     374                      .dwpsn  file "D:/victor TI/Customer issue/Zero/4inOne/Code/sw/modules/filter/src/32b/filter_fo.c",lin
     375              
     376                      .dwfde $C$DW$CIE, _FILTER_FO_getInitialConditions
     377              $C$DW$38        .dwtag  DW_TAG_formal_parameter, DW_AT_name("handle")
     378                      .dwattr $C$DW$38, DW_AT_TI_symbol_name("_handle")
     379                      .dwattr $C$DW$38, DW_AT_type(*$C$DW$T$25)
     380                      .dwattr $C$DW$38, DW_AT_location[DW_OP_reg12]
     381              $C$DW$39        .dwtag  DW_TAG_formal_parameter, DW_AT_name("px1")
     382                      .dwattr $C$DW$39, DW_AT_TI_symbol_name("_px1")
     383                      .dwattr $C$DW$39, DW_AT_type(*$C$DW$T$33)
     384                      .dwattr $C$DW$39, DW_AT_location[DW_OP_reg14]
     385              $C$DW$40        .dwtag  DW_TAG_formal_parameter, DW_AT_name("py1")
TMS320C2000 Assembler PC v6.2.3 Thu Jun 25 17:41:27 2015

Tools Copyright (c) 1996-2013 Texas Instruments Incorporated
C:\Users\a0220341\AppData\Local\Temp\0958811                         PAGE    8

     386                      .dwattr $C$DW$40, DW_AT_TI_symbol_name("_py1")
     387                      .dwattr $C$DW$40, DW_AT_type(*$C$DW$T$33)
     388                      .dwattr $C$DW$40, DW_AT_location[DW_OP_breg20 -4]
     389              
     390              ;***************************************************************
     391              ;* FNAME: _FILTER_FO_getInitialConditions FR SIZE:   0           *
     392              ;*                                                             *
     393              ;* FUNCTION ENVIRONMENT                                        *
     394              ;*                                                             *
     395              ;* FUNCTION PROPERTIES                                         *
     396              ;*                            0 Parameter,  0 Auto,  0 SOE     *
     397              ;***************************************************************
     398              
     399              _FILTER_FO_getInitialConditions:
     400              ;* AR4   assigned to _handle
     401              $C$DW$41        .dwtag  DW_TAG_variable, DW_AT_name("handle")
     402                      .dwattr $C$DW$41, DW_AT_TI_symbol_name("_handle")
     403                      .dwattr $C$DW$41, DW_AT_type(*$C$DW$T$26)
     404                      .dwattr $C$DW$41, DW_AT_location[DW_OP_reg12]
     405              ;* AR5   assigned to _px1
     406              $C$DW$42        .dwtag  DW_TAG_variable, DW_AT_name("px1")
     407                      .dwattr $C$DW$42, DW_AT_TI_symbol_name("_px1")
     408                      .dwattr $C$DW$42, DW_AT_type(*$C$DW$T$42)
     409                      .dwattr $C$DW$42, DW_AT_location[DW_OP_reg14]
     410              ;* AR6   assigned to _py1
     411              $C$DW$43        .dwtag  DW_TAG_variable, DW_AT_name("py1")
     412                      .dwattr $C$DW$43, DW_AT_TI_symbol_name("_py1")
     413                      .dwattr $C$DW$43, DW_AT_type(*$C$DW$T$42)
     414                      .dwattr $C$DW$43, DW_AT_location[DW_OP_reg16]
     415                      .dwcfi  cfa_offset, -2
     416                      .dwcfi  save_reg_to_mem, 26, 0
     417                      .dwcfi  save_reg_to_reg, 78, 26
     418 00000017 C444          MOVL      XAR6,*-SP[4]          ; [CPU_] |70| 
     419                      .dwpsn  file "D:/victor TI/Customer issue/Zero/4inOne/Code/sw/modules/filter/src/32b/filter_fo.c",lin
     420 00000018 06F4          MOVL      ACC,*+XAR4[6]         ; [CPU_] |74| 
     421                      .dwpsn  file "D:/victor TI/Customer issue/Zero/4inOne/Code/sw/modules/filter/src/32b/filter_fo.c",lin
     422 00000019 D008          MOVB      XAR0,#8               ; [CPU_] |76| 
     423                      .dwpsn  file "D:/victor TI/Customer issue/Zero/4inOne/Code/sw/modules/filter/src/32b/filter_fo.c",lin
     424 0000001a 1EC5          MOVL      *+XAR5[0],ACC         ; [CPU_] |74| 
     425                      .dwpsn  file "D:/victor TI/Customer issue/Zero/4inOne/Code/sw/modules/filter/src/32b/filter_fo.c",lin
     426 0000001b 0694          MOVL      ACC,*+XAR4[AR0]       ; [CPU_] |76| 
     427 0000001c 1EC6          MOVL      *+XAR6[0],ACC         ; [CPU_] |76| 
     428              $C$DW$44        .dwtag  DW_TAG_TI_branch
     429                      .dwattr $C$DW$44, DW_AT_low_pc(0x00)
     430                      .dwattr $C$DW$44, DW_AT_TI_return
     431 0000001d 0006          LRETR     ; [CPU_] 
     432                      ; return occurs ; [] 
     433                      .dwattr $C$DW$37, DW_AT_TI_end_file("D:/victor TI/Customer issue/Zero/4inOne/Code/sw/modules/filter/s
     434                      .dwattr $C$DW$37, DW_AT_TI_end_line(0x4f)
     435                      .dwattr $C$DW$37, DW_AT_TI_end_column(0x01)
     436                      .dwendentry
     437                      .dwendtag $C$DW$37
     438              
     439 0000001e               .sect   ".text"
     440                      .global _FILTER_FO_getDenCoeffs
TMS320C2000 Assembler PC v6.2.3 Thu Jun 25 17:41:27 2015

Tools Copyright (c) 1996-2013 Texas Instruments Incorporated
C:\Users\a0220341\AppData\Local\Temp\0958811                         PAGE    9

     441              
     442              $C$DW$45        .dwtag  DW_TAG_subprogram, DW_AT_name("FILTER_FO_getDenCoeffs")
     443                      .dwattr $C$DW$45, DW_AT_low_pc(_FILTER_FO_getDenCoeffs)
     444                      .dwattr $C$DW$45, DW_AT_high_pc(0x00)
     445                      .dwattr $C$DW$45, DW_AT_TI_symbol_name("_FILTER_FO_getDenCoeffs")
     446                      .dwattr $C$DW$45, DW_AT_external
     447                      .dwattr $C$DW$45, DW_AT_TI_begin_file("D:/victor TI/Customer issue/Zero/4inOne/Code/sw/modules/filter
     448                      .dwattr $C$DW$45, DW_AT_TI_begin_line(0x3a)
     449                      .dwattr $C$DW$45, DW_AT_TI_begin_column(0x06)
     450                      .dwattr $C$DW$45, DW_AT_TI_max_frame_size(-2)
     451                      .dwpsn  file "D:/victor TI/Customer issue/Zero/4inOne/Code/sw/modules/filter/src/32b/filter_fo.c",lin
     452              
     453                      .dwfde $C$DW$CIE, _FILTER_FO_getDenCoeffs
     454              $C$DW$46        .dwtag  DW_TAG_formal_parameter, DW_AT_name("handle")
     455                      .dwattr $C$DW$46, DW_AT_TI_symbol_name("_handle")
     456                      .dwattr $C$DW$46, DW_AT_type(*$C$DW$T$25)
     457                      .dwattr $C$DW$46, DW_AT_location[DW_OP_reg12]
     458              $C$DW$47        .dwtag  DW_TAG_formal_parameter, DW_AT_name("pa1")
     459                      .dwattr $C$DW$47, DW_AT_TI_symbol_name("_pa1")
     460                      .dwattr $C$DW$47, DW_AT_type(*$C$DW$T$33)
     461                      .dwattr $C$DW$47, DW_AT_location[DW_OP_reg14]
     462              
     463              ;***************************************************************
     464              ;* FNAME: _FILTER_FO_getDenCoeffs       FR SIZE:   0           *
     465              ;*                                                             *
     466              ;* FUNCTION ENVIRONMENT                                        *
     467              ;*                                                             *
     468              ;* FUNCTION PROPERTIES                                         *
     469              ;*                            0 Parameter,  0 Auto,  0 SOE     *
     470              ;***************************************************************
     471              
     472              _FILTER_FO_getDenCoeffs:
     473              ;* AR4   assigned to _handle
     474              $C$DW$48        .dwtag  DW_TAG_variable, DW_AT_name("handle")
     475                      .dwattr $C$DW$48, DW_AT_TI_symbol_name("_handle")
     476                      .dwattr $C$DW$48, DW_AT_type(*$C$DW$T$26)
     477                      .dwattr $C$DW$48, DW_AT_location[DW_OP_reg12]
     478              ;* AR5   assigned to _pa1
     479              $C$DW$49        .dwtag  DW_TAG_variable, DW_AT_name("pa1")
     480                      .dwattr $C$DW$49, DW_AT_TI_symbol_name("_pa1")
     481                      .dwattr $C$DW$49, DW_AT_type(*$C$DW$T$42)
     482                      .dwattr $C$DW$49, DW_AT_location[DW_OP_reg14]
     483                      .dwcfi  cfa_offset, -2
     484                      .dwcfi  save_reg_to_mem, 26, 0
     485                      .dwcfi  save_reg_to_reg, 78, 26
     486                      .dwpsn  file "D:/victor TI/Customer issue/Zero/4inOne/Code/sw/modules/filter/src/32b/filter_fo.c",lin
     487 0000001e 06C4          MOVL      ACC,*+XAR4[0]         ; [CPU_] |63| 
     488 0000001f 1EC5          MOVL      *+XAR5[0],ACC         ; [CPU_] |63| 
     489              $C$DW$50        .dwtag  DW_TAG_TI_branch
     490                      .dwattr $C$DW$50, DW_AT_low_pc(0x00)
     491                      .dwattr $C$DW$50, DW_AT_TI_return
     492 00000020 0006          LRETR     ; [CPU_] 
     493                      ; return occurs ; [] 
     494                      .dwattr $C$DW$45, DW_AT_TI_end_file("D:/victor TI/Customer issue/Zero/4inOne/Code/sw/modules/filter/s
     495                      .dwattr $C$DW$45, DW_AT_TI_end_line(0x42)
TMS320C2000 Assembler PC v6.2.3 Thu Jun 25 17:41:27 2015

Tools Copyright (c) 1996-2013 Texas Instruments Incorporated
C:\Users\a0220341\AppData\Local\Temp\0958811                         PAGE   10

     496                      .dwattr $C$DW$45, DW_AT_TI_end_column(0x01)
     497                      .dwendentry
     498                      .dwendtag $C$DW$45
     499              
     500              
     501              ;***************************************************************
     502              ;* TYPE INFORMATION                                            *
     503              ;***************************************************************
     504              
     505              $C$DW$T$21      .dwtag  DW_TAG_structure_type
     506                      .dwattr $C$DW$T$21, DW_AT_name("_FILTER_FO_")
     507                      .dwattr $C$DW$T$21, DW_AT_byte_size(0x0a)
     508              $C$DW$51        .dwtag  DW_TAG_member
     509                      .dwattr $C$DW$51, DW_AT_type(*$C$DW$T$20)
     510                      .dwattr $C$DW$51, DW_AT_name("a1")
     511                      .dwattr $C$DW$51, DW_AT_TI_symbol_name("_a1")
     512                      .dwattr $C$DW$51, DW_AT_data_member_location[DW_OP_plus_uconst 0x0]
     513                      .dwattr $C$DW$51, DW_AT_accessibility(DW_ACCESS_public)
     514              $C$DW$52        .dwtag  DW_TAG_member
     515                      .dwattr $C$DW$52, DW_AT_type(*$C$DW$T$20)
     516                      .dwattr $C$DW$52, DW_AT_name("b0")
     517                      .dwattr $C$DW$52, DW_AT_TI_symbol_name("_b0")
     518                      .dwattr $C$DW$52, DW_AT_data_member_location[DW_OP_plus_uconst 0x2]
     519                      .dwattr $C$DW$52, DW_AT_accessibility(DW_ACCESS_public)
     520              $C$DW$53        .dwtag  DW_TAG_member
     521                      .dwattr $C$DW$53, DW_AT_type(*$C$DW$T$20)
     522                      .dwattr $C$DW$53, DW_AT_name("b1")
     523                      .dwattr $C$DW$53, DW_AT_TI_symbol_name("_b1")
     524                      .dwattr $C$DW$53, DW_AT_data_member_location[DW_OP_plus_uconst 0x4]
     525                      .dwattr $C$DW$53, DW_AT_accessibility(DW_ACCESS_public)
     526              $C$DW$54        .dwtag  DW_TAG_member
     527                      .dwattr $C$DW$54, DW_AT_type(*$C$DW$T$20)
     528                      .dwattr $C$DW$54, DW_AT_name("x1")
     529                      .dwattr $C$DW$54, DW_AT_TI_symbol_name("_x1")
     530                      .dwattr $C$DW$54, DW_AT_data_member_location[DW_OP_plus_uconst 0x6]
     531                      .dwattr $C$DW$54, DW_AT_accessibility(DW_ACCESS_public)
     532              $C$DW$55        .dwtag  DW_TAG_member
     533                      .dwattr $C$DW$55, DW_AT_type(*$C$DW$T$20)
     534                      .dwattr $C$DW$55, DW_AT_name("y1")
     535                      .dwattr $C$DW$55, DW_AT_TI_symbol_name("_y1")
     536                      .dwattr $C$DW$55, DW_AT_data_member_location[DW_OP_plus_uconst 0x8]
     537                      .dwattr $C$DW$55, DW_AT_accessibility(DW_ACCESS_public)
     538                      .dwendtag $C$DW$T$21
     539              
     540              $C$DW$T$22      .dwtag  DW_TAG_typedef, DW_AT_name("FILTER_FO_Obj")
     541                      .dwattr $C$DW$T$22, DW_AT_type(*$C$DW$T$21)
     542                      .dwattr $C$DW$T$22, DW_AT_language(DW_LANG_C)
     543              
     544              $C$DW$T$19      .dwtag  DW_TAG_structure_type
     545                      .dwattr $C$DW$T$19, DW_AT_name("_FILTER_FO_Obj_")
     546                      .dwattr $C$DW$T$19, DW_AT_declaration
     547                      .dwendtag $C$DW$T$19
     548              
     549              $C$DW$T$24      .dwtag  DW_TAG_pointer_type
     550                      .dwattr $C$DW$T$24, DW_AT_type(*$C$DW$T$19)
TMS320C2000 Assembler PC v6.2.3 Thu Jun 25 17:41:27 2015

Tools Copyright (c) 1996-2013 Texas Instruments Incorporated
C:\Users\a0220341\AppData\Local\Temp\0958811                         PAGE   11

     551                      .dwattr $C$DW$T$24, DW_AT_address_class(0x16)
     552              $C$DW$T$25      .dwtag  DW_TAG_typedef, DW_AT_name("FILTER_FO_Handle")
     553                      .dwattr $C$DW$T$25, DW_AT_type(*$C$DW$T$24)
     554                      .dwattr $C$DW$T$25, DW_AT_language(DW_LANG_C)
     555              $C$DW$56        .dwtag  DW_TAG_TI_far_type
     556                      .dwattr $C$DW$56, DW_AT_type(*$C$DW$T$25)
     557              $C$DW$T$26      .dwtag  DW_TAG_const_type
     558                      .dwattr $C$DW$T$26, DW_AT_type(*$C$DW$56)
     559              $C$DW$T$3       .dwtag  DW_TAG_pointer_type
     560                      .dwattr $C$DW$T$3, DW_AT_address_class(0x16)
     561              $C$DW$57        .dwtag  DW_TAG_TI_far_type
     562                      .dwattr $C$DW$57, DW_AT_type(*$C$DW$T$3)
     563              $C$DW$T$32      .dwtag  DW_TAG_const_type
     564                      .dwattr $C$DW$T$32, DW_AT_type(*$C$DW$57)
     565              $C$DW$T$4       .dwtag  DW_TAG_base_type
     566                      .dwattr $C$DW$T$4, DW_AT_encoding(DW_ATE_boolean)
     567                      .dwattr $C$DW$T$4, DW_AT_name("bool")
     568                      .dwattr $C$DW$T$4, DW_AT_byte_size(0x01)
     569              $C$DW$T$5       .dwtag  DW_TAG_base_type
     570                      .dwattr $C$DW$T$5, DW_AT_encoding(DW_ATE_signed_char)
     571                      .dwattr $C$DW$T$5, DW_AT_name("signed char")
     572                      .dwattr $C$DW$T$5, DW_AT_byte_size(0x01)
     573              $C$DW$T$6       .dwtag  DW_TAG_base_type
     574                      .dwattr $C$DW$T$6, DW_AT_encoding(DW_ATE_unsigned_char)
     575                      .dwattr $C$DW$T$6, DW_AT_name("unsigned char")
     576                      .dwattr $C$DW$T$6, DW_AT_byte_size(0x01)
     577              $C$DW$T$7       .dwtag  DW_TAG_base_type
     578                      .dwattr $C$DW$T$7, DW_AT_encoding(DW_ATE_signed_char)
     579                      .dwattr $C$DW$T$7, DW_AT_name("wchar_t")
     580                      .dwattr $C$DW$T$7, DW_AT_byte_size(0x01)
     581              $C$DW$T$8       .dwtag  DW_TAG_base_type
     582                      .dwattr $C$DW$T$8, DW_AT_encoding(DW_ATE_signed)
     583                      .dwattr $C$DW$T$8, DW_AT_name("short")
     584                      .dwattr $C$DW$T$8, DW_AT_byte_size(0x01)
     585              $C$DW$T$9       .dwtag  DW_TAG_base_type
     586                      .dwattr $C$DW$T$9, DW_AT_encoding(DW_ATE_unsigned)
     587                      .dwattr $C$DW$T$9, DW_AT_name("unsigned short")
     588                      .dwattr $C$DW$T$9, DW_AT_byte_size(0x01)
     589              $C$DW$T$10      .dwtag  DW_TAG_base_type
     590                      .dwattr $C$DW$T$10, DW_AT_encoding(DW_ATE_signed)
     591                      .dwattr $C$DW$T$10, DW_AT_name("int")
     592                      .dwattr $C$DW$T$10, DW_AT_byte_size(0x01)
     593              $C$DW$T$11      .dwtag  DW_TAG_base_type
     594                      .dwattr $C$DW$T$11, DW_AT_encoding(DW_ATE_unsigned)
     595                      .dwattr $C$DW$T$11, DW_AT_name("unsigned int")
     596                      .dwattr $C$DW$T$11, DW_AT_byte_size(0x01)
     597              $C$DW$T$12      .dwtag  DW_TAG_base_type
     598                      .dwattr $C$DW$T$12, DW_AT_encoding(DW_ATE_signed)
     599                      .dwattr $C$DW$T$12, DW_AT_name("long")
     600                      .dwattr $C$DW$T$12, DW_AT_byte_size(0x02)
     601              $C$DW$T$20      .dwtag  DW_TAG_typedef, DW_AT_name("_iq")
     602                      .dwattr $C$DW$T$20, DW_AT_type(*$C$DW$T$12)
     603                      .dwattr $C$DW$T$20, DW_AT_language(DW_LANG_C)
     604              $C$DW$T$33      .dwtag  DW_TAG_pointer_type
     605                      .dwattr $C$DW$T$33, DW_AT_type(*$C$DW$T$20)
TMS320C2000 Assembler PC v6.2.3 Thu Jun 25 17:41:27 2015

Tools Copyright (c) 1996-2013 Texas Instruments Incorporated
C:\Users\a0220341\AppData\Local\Temp\0958811                         PAGE   12

     606                      .dwattr $C$DW$T$33, DW_AT_address_class(0x16)
     607              $C$DW$58        .dwtag  DW_TAG_TI_far_type
     608                      .dwattr $C$DW$58, DW_AT_type(*$C$DW$T$33)
     609              $C$DW$T$42      .dwtag  DW_TAG_const_type
     610                      .dwattr $C$DW$T$42, DW_AT_type(*$C$DW$58)
     611              $C$DW$59        .dwtag  DW_TAG_TI_far_type
     612                      .dwattr $C$DW$59, DW_AT_type(*$C$DW$T$20)
     613              $C$DW$T$36      .dwtag  DW_TAG_const_type
     614                      .dwattr $C$DW$T$36, DW_AT_type(*$C$DW$59)
     615              $C$DW$T$13      .dwtag  DW_TAG_base_type
     616                      .dwattr $C$DW$T$13, DW_AT_encoding(DW_ATE_unsigned)
     617                      .dwattr $C$DW$T$13, DW_AT_name("unsigned long")
     618                      .dwattr $C$DW$T$13, DW_AT_byte_size(0x02)
     619              $C$DW$T$27      .dwtag  DW_TAG_typedef, DW_AT_name("size_t")
     620                      .dwattr $C$DW$T$27, DW_AT_type(*$C$DW$T$13)
     621                      .dwattr $C$DW$T$27, DW_AT_language(DW_LANG_C)
     622              $C$DW$60        .dwtag  DW_TAG_TI_far_type
     623                      .dwattr $C$DW$60, DW_AT_type(*$C$DW$T$27)
     624              $C$DW$T$28      .dwtag  DW_TAG_const_type
     625                      .dwattr $C$DW$T$28, DW_AT_type(*$C$DW$60)
     626              $C$DW$T$14      .dwtag  DW_TAG_base_type
     627                      .dwattr $C$DW$T$14, DW_AT_encoding(DW_ATE_signed)
     628                      .dwattr $C$DW$T$14, DW_AT_name("long long")
     629                      .dwattr $C$DW$T$14, DW_AT_byte_size(0x04)
     630              $C$DW$T$15      .dwtag  DW_TAG_base_type
     631                      .dwattr $C$DW$T$15, DW_AT_encoding(DW_ATE_unsigned)
     632                      .dwattr $C$DW$T$15, DW_AT_name("unsigned long long")
     633                      .dwattr $C$DW$T$15, DW_AT_byte_size(0x04)
     634              $C$DW$T$16      .dwtag  DW_TAG_base_type
     635                      .dwattr $C$DW$T$16, DW_AT_encoding(DW_ATE_float)
     636                      .dwattr $C$DW$T$16, DW_AT_name("float")
     637                      .dwattr $C$DW$T$16, DW_AT_byte_size(0x02)
     638              $C$DW$T$17      .dwtag  DW_TAG_base_type
     639                      .dwattr $C$DW$T$17, DW_AT_encoding(DW_ATE_float)
     640                      .dwattr $C$DW$T$17, DW_AT_name("double")
     641                      .dwattr $C$DW$T$17, DW_AT_byte_size(0x02)
     642              $C$DW$T$18      .dwtag  DW_TAG_base_type
     643                      .dwattr $C$DW$T$18, DW_AT_encoding(DW_ATE_float)
     644                      .dwattr $C$DW$T$18, DW_AT_name("long double")
     645                      .dwattr $C$DW$T$18, DW_AT_byte_size(0x04)
     646                      .dwattr $C$DW$CU, DW_AT_language(DW_LANG_C)
     647              
     648              ;***************************************************************
     649              ;* DWARF CIE ENTRIES                                           *
     650              ;***************************************************************
     651              
     652              $C$DW$CIE       .dwcie 78
     653                      .dwcfi  cfa_register, 20
     654                      .dwcfi  cfa_offset, 0
     655                      .dwcfi  undefined, 0
     656                      .dwcfi  undefined, 1
     657                      .dwcfi  undefined, 2
     658                      .dwcfi  undefined, 3
     659                      .dwcfi  undefined, 20
     660                      .dwcfi  undefined, 21
TMS320C2000 Assembler PC v6.2.3 Thu Jun 25 17:41:27 2015

Tools Copyright (c) 1996-2013 Texas Instruments Incorporated
C:\Users\a0220341\AppData\Local\Temp\0958811                         PAGE   13

     661                      .dwcfi  undefined, 22
     662                      .dwcfi  undefined, 23
     663                      .dwcfi  undefined, 24
     664                      .dwcfi  undefined, 25
     665                      .dwcfi  undefined, 26
     666                      .dwcfi  same_value, 28
     667                      .dwcfi  undefined, 29
     668                      .dwcfi  undefined, 30
     669                      .dwcfi  undefined, 31
     670                      .dwcfi  undefined, 32
     671                      .dwcfi  undefined, 33
     672                      .dwcfi  undefined, 34
     673                      .dwcfi  undefined, 35
     674                      .dwcfi  undefined, 36
     675                      .dwcfi  undefined, 37
     676                      .dwcfi  undefined, 38
     677                      .dwcfi  undefined, 75
     678                      .dwcfi  undefined, 76
     679                      .dwcfi  undefined, 77
     680                      .dwcfi  undefined, 4
     681                      .dwcfi  same_value, 6
     682                      .dwcfi  same_value, 8
     683                      .dwcfi  same_value, 10
     684                      .dwcfi  undefined, 12
     685                      .dwcfi  undefined, 14
     686                      .dwcfi  undefined, 16
     687                      .dwcfi  undefined, 17
     688                      .dwcfi  undefined, 18
     689                      .dwcfi  undefined, 19
     690                      .dwcfi  undefined, 5
     691                      .dwcfi  same_value, 7
     692                      .dwcfi  same_value, 9
     693                      .dwcfi  same_value, 11
     694                      .dwcfi  undefined, 13
     695                      .dwcfi  undefined, 15
     696                      .dwcfi  undefined, 78
     697                      .dwendentry
     698              
     699              ;***************************************************************
     700              ;* DWARF REGISTER MAP                                          *
     701              ;***************************************************************
     702              
     703              $C$DW$61        .dwtag  DW_TAG_TI_assign_register, DW_AT_name("AL")
     704                      .dwattr $C$DW$61, DW_AT_location[DW_OP_reg0]
     705              $C$DW$62        .dwtag  DW_TAG_TI_assign_register, DW_AT_name("AH")
     706                      .dwattr $C$DW$62, DW_AT_location[DW_OP_reg1]
     707              $C$DW$63        .dwtag  DW_TAG_TI_assign_register, DW_AT_name("PL")
     708                      .dwattr $C$DW$63, DW_AT_location[DW_OP_reg2]
     709              $C$DW$64        .dwtag  DW_TAG_TI_assign_register, DW_AT_name("PH")
     710                      .dwattr $C$DW$64, DW_AT_location[DW_OP_reg3]
     711              $C$DW$65        .dwtag  DW_TAG_TI_assign_register, DW_AT_name("SP")
     712                      .dwattr $C$DW$65, DW_AT_location[DW_OP_reg20]
     713              $C$DW$66        .dwtag  DW_TAG_TI_assign_register, DW_AT_name("XT")
     714                      .dwattr $C$DW$66, DW_AT_location[DW_OP_reg21]
     715              $C$DW$67        .dwtag  DW_TAG_TI_assign_register, DW_AT_name("T")
TMS320C2000 Assembler PC v6.2.3 Thu Jun 25 17:41:27 2015

Tools Copyright (c) 1996-2013 Texas Instruments Incorporated
C:\Users\a0220341\AppData\Local\Temp\0958811                         PAGE   14

     716                      .dwattr $C$DW$67, DW_AT_location[DW_OP_reg22]
     717              $C$DW$68        .dwtag  DW_TAG_TI_assign_register, DW_AT_name("ST0")
     718                      .dwattr $C$DW$68, DW_AT_location[DW_OP_reg23]
     719              $C$DW$69        .dwtag  DW_TAG_TI_assign_register, DW_AT_name("ST1")
     720                      .dwattr $C$DW$69, DW_AT_location[DW_OP_reg24]
     721              $C$DW$70        .dwtag  DW_TAG_TI_assign_register, DW_AT_name("PC")
     722                      .dwattr $C$DW$70, DW_AT_location[DW_OP_reg25]
     723              $C$DW$71        .dwtag  DW_TAG_TI_assign_register, DW_AT_name("RPC")
     724                      .dwattr $C$DW$71, DW_AT_location[DW_OP_reg26]
     725              $C$DW$72        .dwtag  DW_TAG_TI_assign_register, DW_AT_name("FP")
     726                      .dwattr $C$DW$72, DW_AT_location[DW_OP_reg28]
     727              $C$DW$73        .dwtag  DW_TAG_TI_assign_register, DW_AT_name("DP")
     728                      .dwattr $C$DW$73, DW_AT_location[DW_OP_reg29]
     729              $C$DW$74        .dwtag  DW_TAG_TI_assign_register, DW_AT_name("SXM")
     730                      .dwattr $C$DW$74, DW_AT_location[DW_OP_reg30]
     731              $C$DW$75        .dwtag  DW_TAG_TI_assign_register, DW_AT_name("PM")
     732                      .dwattr $C$DW$75, DW_AT_location[DW_OP_reg31]
     733              $C$DW$76        .dwtag  DW_TAG_TI_assign_register, DW_AT_name("OVM")
     734                      .dwattr $C$DW$76, DW_AT_location[DW_OP_regx 0x20]
     735              $C$DW$77        .dwtag  DW_TAG_TI_assign_register, DW_AT_name("PAGE0")
     736                      .dwattr $C$DW$77, DW_AT_location[DW_OP_regx 0x21]
     737              $C$DW$78        .dwtag  DW_TAG_TI_assign_register, DW_AT_name("AMODE")
     738                      .dwattr $C$DW$78, DW_AT_location[DW_OP_regx 0x22]
     739              $C$DW$79        .dwtag  DW_TAG_TI_assign_register, DW_AT_name("INTM")
     740                      .dwattr $C$DW$79, DW_AT_location[DW_OP_regx 0x23]
     741              $C$DW$80        .dwtag  DW_TAG_TI_assign_register, DW_AT_name("IFR")
     742                      .dwattr $C$DW$80, DW_AT_location[DW_OP_regx 0x24]
     743              $C$DW$81        .dwtag  DW_TAG_TI_assign_register, DW_AT_name("IER")
     744                      .dwattr $C$DW$81, DW_AT_location[DW_OP_regx 0x25]
     745              $C$DW$82        .dwtag  DW_TAG_TI_assign_register, DW_AT_name("V")
     746                      .dwattr $C$DW$82, DW_AT_location[DW_OP_regx 0x26]
     747              $C$DW$83        .dwtag  DW_TAG_TI_assign_register, DW_AT_name("PSEUDOH")
     748                      .dwattr $C$DW$83, DW_AT_location[DW_OP_regx 0x4c]
     749              $C$DW$84        .dwtag  DW_TAG_TI_assign_register, DW_AT_name("VOL")
     750                      .dwattr $C$DW$84, DW_AT_location[DW_OP_regx 0x4d]
     751              $C$DW$85        .dwtag  DW_TAG_TI_assign_register, DW_AT_name("AR0")
     752                      .dwattr $C$DW$85, DW_AT_location[DW_OP_reg4]
     753              $C$DW$86        .dwtag  DW_TAG_TI_assign_register, DW_AT_name("AR1")
     754                      .dwattr $C$DW$86, DW_AT_location[DW_OP_reg6]
     755              $C$DW$87        .dwtag  DW_TAG_TI_assign_register, DW_AT_name("AR2")
     756                      .dwattr $C$DW$87, DW_AT_location[DW_OP_reg8]
     757              $C$DW$88        .dwtag  DW_TAG_TI_assign_register, DW_AT_name("AR3")
     758                      .dwattr $C$DW$88, DW_AT_location[DW_OP_reg10]
     759              $C$DW$89        .dwtag  DW_TAG_TI_assign_register, DW_AT_name("AR4")
     760                      .dwattr $C$DW$89, DW_AT_location[DW_OP_reg12]
     761              $C$DW$90        .dwtag  DW_TAG_TI_assign_register, DW_AT_name("AR5")
     762                      .dwattr $C$DW$90, DW_AT_location[DW_OP_reg14]
     763              $C$DW$91        .dwtag  DW_TAG_TI_assign_register, DW_AT_name("AR6")
     764                      .dwattr $C$DW$91, DW_AT_location[DW_OP_reg16]
     765              $C$DW$92        .dwtag  DW_TAG_TI_assign_register, DW_AT_name("XAR6")
     766                      .dwattr $C$DW$92, DW_AT_location[DW_OP_reg17]
     767              $C$DW$93        .dwtag  DW_TAG_TI_assign_register, DW_AT_name("AR7")
     768                      .dwattr $C$DW$93, DW_AT_location[DW_OP_reg18]
     769              $C$DW$94        .dwtag  DW_TAG_TI_assign_register, DW_AT_name("XAR7")
     770                      .dwattr $C$DW$94, DW_AT_location[DW_OP_reg19]
TMS320C2000 Assembler PC v6.2.3 Thu Jun 25 17:41:27 2015

Tools Copyright (c) 1996-2013 Texas Instruments Incorporated
C:\Users\a0220341\AppData\Local\Temp\0958811                         PAGE   15

     771              $C$DW$95        .dwtag  DW_TAG_TI_assign_register, DW_AT_name("XAR0")
     772                      .dwattr $C$DW$95, DW_AT_location[DW_OP_reg5]
     773              $C$DW$96        .dwtag  DW_TAG_TI_assign_register, DW_AT_name("XAR1")
     774                      .dwattr $C$DW$96, DW_AT_location[DW_OP_reg7]
     775              $C$DW$97        .dwtag  DW_TAG_TI_assign_register, DW_AT_name("XAR2")
     776                      .dwattr $C$DW$97, DW_AT_location[DW_OP_reg9]
     777              $C$DW$98        .dwtag  DW_TAG_TI_assign_register, DW_AT_name("XAR3")
     778                      .dwattr $C$DW$98, DW_AT_location[DW_OP_reg11]
     779              $C$DW$99        .dwtag  DW_TAG_TI_assign_register, DW_AT_name("XAR4")
     780                      .dwattr $C$DW$99, DW_AT_location[DW_OP_reg13]
     781              $C$DW$100       .dwtag  DW_TAG_TI_assign_register, DW_AT_name("XAR5")
     782                      .dwattr $C$DW$100, DW_AT_location[DW_OP_reg15]
     783              $C$DW$101       .dwtag  DW_TAG_TI_assign_register, DW_AT_name("CIE_RETA")
     784                      .dwattr $C$DW$101, DW_AT_location[DW_OP_regx 0x4e]
     785                      .dwendtag $C$DW$CU
     786              

No Assembly Errors, No Assembly Warnings
