TMS320C2000 Assembler PC v6.2.3 Mon Aug 03 18:20:40 2015

Tools Copyright (c) 1996-2013 Texas Instruments Incorporated
C:\Users\a0220341\AppData\Local\Temp\0740812                         PAGE    1

       1              ;***************************************************************
       2              ;* TMS320C2000 C/C++ Codegen                         PC v6.2.3 *
       3              ;* Date/Time created: Mon Aug 03 18:20:40 2015                 *
       4              ;***************************************************************
       5                      .compiler_opts --float_support=softlib --hll_source=on --mem_model:code=flat --mem_model:data=large -
       6        0002  FP      .set    XAR2
       7              
       8              $C$DW$CU        .dwtag  DW_TAG_compile_unit
       9                      .dwattr $C$DW$CU, DW_AT_name("D:/victor TI/Customer issue/Zero/4inOne/Code/sw/modules/memCopy/src/mem
      10                      .dwattr $C$DW$CU, DW_AT_producer("TMS320C2000 C/C++ Codegen PC v6.2.3 Copyright (c) 1996-2013 Texas I
      11                      .dwattr $C$DW$CU, DW_AT_TI_version(0x01)
      12                      .dwattr $C$DW$CU, DW_AT_comp_dir("D:\victor TI\Customer issue\Zero\4inOne\Code\sw\solutions\instaspin
      13              ;       C:\ti\ccsv6\tools\compiler\ti-cgt-c2000_6.2.3\bin\opt2000.exe C:\\Users\\a0220341\\AppData\\Local\\Te
      14              ;       C:\ti\ccsv6\tools\compiler\ti-cgt-c2000_6.2.3\bin\ac2000.exe -@C:\\Users\\a0220341\\AppData\\Local\\T
      15 00000000               .sect   ".text"
      16                      .global _memCopy
      17              
      18              $C$DW$1 .dwtag  DW_TAG_subprogram, DW_AT_name("memCopy")
      19                      .dwattr $C$DW$1, DW_AT_low_pc(_memCopy)
      20                      .dwattr $C$DW$1, DW_AT_high_pc(0x00)
      21                      .dwattr $C$DW$1, DW_AT_TI_symbol_name("_memCopy")
      22                      .dwattr $C$DW$1, DW_AT_external
      23                      .dwattr $C$DW$1, DW_AT_TI_begin_file("D:/victor TI/Customer issue/Zero/4inOne/Code/sw/modules/memCopy
      24                      .dwattr $C$DW$1, DW_AT_TI_begin_line(0x38)
      25                      .dwattr $C$DW$1, DW_AT_TI_begin_column(0x06)
      26                      .dwattr $C$DW$1, DW_AT_TI_max_frame_size(-2)
      27                      .dwpsn  file "D:/victor TI/Customer issue/Zero/4inOne/Code/sw/modules/memCopy/src/memCopy.c",line 57,
      28              
      29                      .dwfde $C$DW$CIE, _memCopy
      30              $C$DW$2 .dwtag  DW_TAG_formal_parameter, DW_AT_name("srcStartAddr")
      31                      .dwattr $C$DW$2, DW_AT_TI_symbol_name("_srcStartAddr")
      32                      .dwattr $C$DW$2, DW_AT_type(*$C$DW$T$20)
      33                      .dwattr $C$DW$2, DW_AT_location[DW_OP_reg12]
      34              $C$DW$3 .dwtag  DW_TAG_formal_parameter, DW_AT_name("srcEndAddr")
      35                      .dwattr $C$DW$3, DW_AT_TI_symbol_name("_srcEndAddr")
      36                      .dwattr $C$DW$3, DW_AT_type(*$C$DW$T$20)
      37                      .dwattr $C$DW$3, DW_AT_location[DW_OP_reg14]
      38              $C$DW$4 .dwtag  DW_TAG_formal_parameter, DW_AT_name("dstAddr")
      39                      .dwattr $C$DW$4, DW_AT_TI_symbol_name("_dstAddr")
      40                      .dwattr $C$DW$4, DW_AT_type(*$C$DW$T$20)
      41                      .dwattr $C$DW$4, DW_AT_location[DW_OP_breg20 -4]
      42              
      43              ;***************************************************************
      44              ;* FNAME: _memCopy                      FR SIZE:   0           *
      45              ;*                                                             *
      46              ;* FUNCTION ENVIRONMENT                                        *
      47              ;*                                                             *
      48              ;* FUNCTION PROPERTIES                                         *
      49              ;*                            0 Parameter,  0 Auto,  0 SOE     *
      50              ;***************************************************************
      51              
      52              _memCopy:
      53              ;* AR5   assigned to _dstAddr
      54              $C$DW$5 .dwtag  DW_TAG_variable, DW_AT_name("dstAddr")
      55                      .dwattr $C$DW$5, DW_AT_TI_symbol_name("_dstAddr")
TMS320C2000 Assembler PC v6.2.3 Mon Aug 03 18:20:40 2015

Tools Copyright (c) 1996-2013 Texas Instruments Incorporated
C:\Users\a0220341\AppData\Local\Temp\0740812                         PAGE    2

      56                      .dwattr $C$DW$5, DW_AT_type(*$C$DW$T$20)
      57                      .dwattr $C$DW$5, DW_AT_location[DW_OP_reg14]
      58              ;* AL    assigned to _srcEndAddr
      59              $C$DW$6 .dwtag  DW_TAG_variable, DW_AT_name("srcEndAddr")
      60                      .dwattr $C$DW$6, DW_AT_TI_symbol_name("_srcEndAddr")
      61                      .dwattr $C$DW$6, DW_AT_type(*$C$DW$T$22)
      62                      .dwattr $C$DW$6, DW_AT_location[DW_OP_reg0]
      63              ;* AR7   assigned to _srcStartAddr
      64              $C$DW$7 .dwtag  DW_TAG_variable, DW_AT_name("srcStartAddr")
      65                      .dwattr $C$DW$7, DW_AT_TI_symbol_name("_srcStartAddr")
      66                      .dwattr $C$DW$7, DW_AT_type(*$C$DW$T$20)
      67                      .dwattr $C$DW$7, DW_AT_location[DW_OP_reg18]
      68              ;* AR4   assigned to $O$L1
      69                      .dwcfi  cfa_offset, -2
      70                      .dwcfi  save_reg_to_mem, 26, 0
      71                      .dwcfi  save_reg_to_reg, 78, 26
      72 00000000 A0A9          MOVL      ACC,XAR5              ; [CPU_] |57| 
      73 00000001 C5A4          MOVL      XAR7,XAR4             ; [CPU_] |57| 
      74 00000002 8344          MOVL      XAR5,*-SP[4]          ; [CPU_] |57| 
      75                      .dwpsn  file "D:/victor TI/Customer issue/Zero/4inOne/Code/sw/modules/memCopy/src/memCopy.c",line 59,
      76 00000003 0FA7          CMPL      ACC,XAR7              ; [CPU_] |59| 
      77 00000004 680B          B         $C$L2,LO              ; [CPU_] |59| 
      78                      ; branchcc occurs ; [] |59| 
      79 00000005 03A7          SUBL      ACC,XAR7              ; [CPU_] 
      80 00000006 8AA9          MOVL      XAR4,ACC              ; [CPU_] 
      81 00000007       $C$L1:    
      82                      .dwpsn  file "D:/victor TI/Customer issue/Zero/4inOne/Code/sw/modules/memCopy/src/memCopy.c",line 61,
      83 00000007 92C7          MOV       AL,*XAR7              ; [CPU_] |61| 
      84                      .dwpsn  file "D:/victor TI/Customer issue/Zero/4inOne/Code/sw/modules/memCopy/src/memCopy.c",line 59,
      85 00000008 DC81          SUBB      XAR4,#1               ; [CPU_] |59| 
      86                      .dwpsn  file "D:/victor TI/Customer issue/Zero/4inOne/Code/sw/modules/memCopy/src/memCopy.c",line 61,
      87 00000009 9685          MOV       *XAR5++,AL            ; [CPU_] |61| 
      88                      .dwpsn  file "D:/victor TI/Customer issue/Zero/4inOne/Code/sw/modules/memCopy/src/memCopy.c",line 59,
      89 0000000a 0200          MOVB      ACC,#0                ; [CPU_] |59| 
      90 0000000b 1901          SUBB      ACC,#1                ; [CPU_] |59| 
      91 0000000c 0FA4          CMPL      ACC,XAR4              ; [CPU_] |59| 
      92                      .dwpsn  file "D:/victor TI/Customer issue/Zero/4inOne/Code/sw/modules/memCopy/src/memCopy.c",line 61,
      93 0000000d DF01          ADDB      XAR7,#1               ; [CPU_] |61| 
      94                      .dwpsn  file "D:/victor TI/Customer issue/Zero/4inOne/Code/sw/modules/memCopy/src/memCopy.c",line 59,
      95 0000000e EDF9          BF        $C$L1,NEQ             ; [CPU_] |59| 
      96                      ; branchcc occurs ; [] |59| 
      97              $C$L2:    
      98              $C$DW$8 .dwtag  DW_TAG_TI_branch
      99                      .dwattr $C$DW$8, DW_AT_low_pc(0x00)
     100                      .dwattr $C$DW$8, DW_AT_TI_return
     101 0000000f 0006          LRETR     ; [CPU_] 
     102                      ; return occurs ; [] 
     103                      .dwattr $C$DW$1, DW_AT_TI_end_file("D:/victor TI/Customer issue/Zero/4inOne/Code/sw/modules/memCopy/s
     104                      .dwattr $C$DW$1, DW_AT_TI_end_line(0x41)
     105                      .dwattr $C$DW$1, DW_AT_TI_end_column(0x01)
     106                      .dwendentry
     107                      .dwendtag $C$DW$1
     108              
     109              
     110              ;***************************************************************
TMS320C2000 Assembler PC v6.2.3 Mon Aug 03 18:20:40 2015

Tools Copyright (c) 1996-2013 Texas Instruments Incorporated
C:\Users\a0220341\AppData\Local\Temp\0740812                         PAGE    3

     111              ;* TYPE INFORMATION                                            *
     112              ;***************************************************************
     113              $C$DW$T$4       .dwtag  DW_TAG_base_type
     114                      .dwattr $C$DW$T$4, DW_AT_encoding(DW_ATE_boolean)
     115                      .dwattr $C$DW$T$4, DW_AT_name("bool")
     116                      .dwattr $C$DW$T$4, DW_AT_byte_size(0x01)
     117              $C$DW$T$5       .dwtag  DW_TAG_base_type
     118                      .dwattr $C$DW$T$5, DW_AT_encoding(DW_ATE_signed_char)
     119                      .dwattr $C$DW$T$5, DW_AT_name("signed char")
     120                      .dwattr $C$DW$T$5, DW_AT_byte_size(0x01)
     121              $C$DW$T$6       .dwtag  DW_TAG_base_type
     122                      .dwattr $C$DW$T$6, DW_AT_encoding(DW_ATE_unsigned_char)
     123                      .dwattr $C$DW$T$6, DW_AT_name("unsigned char")
     124                      .dwattr $C$DW$T$6, DW_AT_byte_size(0x01)
     125              $C$DW$T$7       .dwtag  DW_TAG_base_type
     126                      .dwattr $C$DW$T$7, DW_AT_encoding(DW_ATE_signed_char)
     127                      .dwattr $C$DW$T$7, DW_AT_name("wchar_t")
     128                      .dwattr $C$DW$T$7, DW_AT_byte_size(0x01)
     129              $C$DW$T$8       .dwtag  DW_TAG_base_type
     130                      .dwattr $C$DW$T$8, DW_AT_encoding(DW_ATE_signed)
     131                      .dwattr $C$DW$T$8, DW_AT_name("short")
     132                      .dwattr $C$DW$T$8, DW_AT_byte_size(0x01)
     133              $C$DW$T$9       .dwtag  DW_TAG_base_type
     134                      .dwattr $C$DW$T$9, DW_AT_encoding(DW_ATE_unsigned)
     135                      .dwattr $C$DW$T$9, DW_AT_name("unsigned short")
     136                      .dwattr $C$DW$T$9, DW_AT_byte_size(0x01)
     137              $C$DW$T$19      .dwtag  DW_TAG_typedef, DW_AT_name("uint16_t")
     138                      .dwattr $C$DW$T$19, DW_AT_type(*$C$DW$T$9)
     139                      .dwattr $C$DW$T$19, DW_AT_language(DW_LANG_C)
     140              $C$DW$T$20      .dwtag  DW_TAG_pointer_type
     141                      .dwattr $C$DW$T$20, DW_AT_type(*$C$DW$T$19)
     142                      .dwattr $C$DW$T$20, DW_AT_address_class(0x16)
     143              $C$DW$9 .dwtag  DW_TAG_TI_far_type
     144                      .dwattr $C$DW$9, DW_AT_type(*$C$DW$T$20)
     145              $C$DW$T$22      .dwtag  DW_TAG_const_type
     146                      .dwattr $C$DW$T$22, DW_AT_type(*$C$DW$9)
     147              $C$DW$T$10      .dwtag  DW_TAG_base_type
     148                      .dwattr $C$DW$T$10, DW_AT_encoding(DW_ATE_signed)
     149                      .dwattr $C$DW$T$10, DW_AT_name("int")
     150                      .dwattr $C$DW$T$10, DW_AT_byte_size(0x01)
     151              $C$DW$T$11      .dwtag  DW_TAG_base_type
     152                      .dwattr $C$DW$T$11, DW_AT_encoding(DW_ATE_unsigned)
     153                      .dwattr $C$DW$T$11, DW_AT_name("unsigned int")
     154                      .dwattr $C$DW$T$11, DW_AT_byte_size(0x01)
     155              $C$DW$T$12      .dwtag  DW_TAG_base_type
     156                      .dwattr $C$DW$T$12, DW_AT_encoding(DW_ATE_signed)
     157                      .dwattr $C$DW$T$12, DW_AT_name("long")
     158                      .dwattr $C$DW$T$12, DW_AT_byte_size(0x02)
     159              $C$DW$T$13      .dwtag  DW_TAG_base_type
     160                      .dwattr $C$DW$T$13, DW_AT_encoding(DW_ATE_unsigned)
     161                      .dwattr $C$DW$T$13, DW_AT_name("unsigned long")
     162                      .dwattr $C$DW$T$13, DW_AT_byte_size(0x02)
     163              $C$DW$T$14      .dwtag  DW_TAG_base_type
     164                      .dwattr $C$DW$T$14, DW_AT_encoding(DW_ATE_signed)
     165                      .dwattr $C$DW$T$14, DW_AT_name("long long")
TMS320C2000 Assembler PC v6.2.3 Mon Aug 03 18:20:40 2015

Tools Copyright (c) 1996-2013 Texas Instruments Incorporated
C:\Users\a0220341\AppData\Local\Temp\0740812                         PAGE    4

     166                      .dwattr $C$DW$T$14, DW_AT_byte_size(0x04)
     167              $C$DW$T$15      .dwtag  DW_TAG_base_type
     168                      .dwattr $C$DW$T$15, DW_AT_encoding(DW_ATE_unsigned)
     169                      .dwattr $C$DW$T$15, DW_AT_name("unsigned long long")
     170                      .dwattr $C$DW$T$15, DW_AT_byte_size(0x04)
     171              $C$DW$T$16      .dwtag  DW_TAG_base_type
     172                      .dwattr $C$DW$T$16, DW_AT_encoding(DW_ATE_float)
     173                      .dwattr $C$DW$T$16, DW_AT_name("float")
     174                      .dwattr $C$DW$T$16, DW_AT_byte_size(0x02)
     175              $C$DW$T$17      .dwtag  DW_TAG_base_type
     176                      .dwattr $C$DW$T$17, DW_AT_encoding(DW_ATE_float)
     177                      .dwattr $C$DW$T$17, DW_AT_name("double")
     178                      .dwattr $C$DW$T$17, DW_AT_byte_size(0x02)
     179              $C$DW$T$18      .dwtag  DW_TAG_base_type
     180                      .dwattr $C$DW$T$18, DW_AT_encoding(DW_ATE_float)
     181                      .dwattr $C$DW$T$18, DW_AT_name("long double")
     182                      .dwattr $C$DW$T$18, DW_AT_byte_size(0x04)
     183                      .dwattr $C$DW$CU, DW_AT_language(DW_LANG_C)
     184              
     185              ;***************************************************************
     186              ;* DWARF CIE ENTRIES                                           *
     187              ;***************************************************************
     188              
     189              $C$DW$CIE       .dwcie 78
     190                      .dwcfi  cfa_register, 20
     191                      .dwcfi  cfa_offset, 0
     192                      .dwcfi  undefined, 0
     193                      .dwcfi  undefined, 1
     194                      .dwcfi  undefined, 2
     195                      .dwcfi  undefined, 3
     196                      .dwcfi  undefined, 20
     197                      .dwcfi  undefined, 21
     198                      .dwcfi  undefined, 22
     199                      .dwcfi  undefined, 23
     200                      .dwcfi  undefined, 24
     201                      .dwcfi  undefined, 25
     202                      .dwcfi  undefined, 26
     203                      .dwcfi  same_value, 28
     204                      .dwcfi  undefined, 29
     205                      .dwcfi  undefined, 30
     206                      .dwcfi  undefined, 31
     207                      .dwcfi  undefined, 32
     208                      .dwcfi  undefined, 33
     209                      .dwcfi  undefined, 34
     210                      .dwcfi  undefined, 35
     211                      .dwcfi  undefined, 36
     212                      .dwcfi  undefined, 37
     213                      .dwcfi  undefined, 38
     214                      .dwcfi  undefined, 75
     215                      .dwcfi  undefined, 76
     216                      .dwcfi  undefined, 77
     217                      .dwcfi  undefined, 4
     218                      .dwcfi  same_value, 6
     219                      .dwcfi  same_value, 8
     220                      .dwcfi  same_value, 10
TMS320C2000 Assembler PC v6.2.3 Mon Aug 03 18:20:40 2015

Tools Copyright (c) 1996-2013 Texas Instruments Incorporated
C:\Users\a0220341\AppData\Local\Temp\0740812                         PAGE    5

     221                      .dwcfi  undefined, 12
     222                      .dwcfi  undefined, 14
     223                      .dwcfi  undefined, 16
     224                      .dwcfi  undefined, 17
     225                      .dwcfi  undefined, 18
     226                      .dwcfi  undefined, 19
     227                      .dwcfi  undefined, 5
     228                      .dwcfi  same_value, 7
     229                      .dwcfi  same_value, 9
     230                      .dwcfi  same_value, 11
     231                      .dwcfi  undefined, 13
     232                      .dwcfi  undefined, 15
     233                      .dwcfi  undefined, 78
     234                      .dwendentry
     235              
     236              ;***************************************************************
     237              ;* DWARF REGISTER MAP                                          *
     238              ;***************************************************************
     239              
     240              $C$DW$10        .dwtag  DW_TAG_TI_assign_register, DW_AT_name("AL")
     241                      .dwattr $C$DW$10, DW_AT_location[DW_OP_reg0]
     242              $C$DW$11        .dwtag  DW_TAG_TI_assign_register, DW_AT_name("AH")
     243                      .dwattr $C$DW$11, DW_AT_location[DW_OP_reg1]
     244              $C$DW$12        .dwtag  DW_TAG_TI_assign_register, DW_AT_name("PL")
     245                      .dwattr $C$DW$12, DW_AT_location[DW_OP_reg2]
     246              $C$DW$13        .dwtag  DW_TAG_TI_assign_register, DW_AT_name("PH")
     247                      .dwattr $C$DW$13, DW_AT_location[DW_OP_reg3]
     248              $C$DW$14        .dwtag  DW_TAG_TI_assign_register, DW_AT_name("SP")
     249                      .dwattr $C$DW$14, DW_AT_location[DW_OP_reg20]
     250              $C$DW$15        .dwtag  DW_TAG_TI_assign_register, DW_AT_name("XT")
     251                      .dwattr $C$DW$15, DW_AT_location[DW_OP_reg21]
     252              $C$DW$16        .dwtag  DW_TAG_TI_assign_register, DW_AT_name("T")
     253                      .dwattr $C$DW$16, DW_AT_location[DW_OP_reg22]
     254              $C$DW$17        .dwtag  DW_TAG_TI_assign_register, DW_AT_name("ST0")
     255                      .dwattr $C$DW$17, DW_AT_location[DW_OP_reg23]
     256              $C$DW$18        .dwtag  DW_TAG_TI_assign_register, DW_AT_name("ST1")
     257                      .dwattr $C$DW$18, DW_AT_location[DW_OP_reg24]
     258              $C$DW$19        .dwtag  DW_TAG_TI_assign_register, DW_AT_name("PC")
     259                      .dwattr $C$DW$19, DW_AT_location[DW_OP_reg25]
     260              $C$DW$20        .dwtag  DW_TAG_TI_assign_register, DW_AT_name("RPC")
     261                      .dwattr $C$DW$20, DW_AT_location[DW_OP_reg26]
     262              $C$DW$21        .dwtag  DW_TAG_TI_assign_register, DW_AT_name("FP")
     263                      .dwattr $C$DW$21, DW_AT_location[DW_OP_reg28]
     264              $C$DW$22        .dwtag  DW_TAG_TI_assign_register, DW_AT_name("DP")
     265                      .dwattr $C$DW$22, DW_AT_location[DW_OP_reg29]
     266              $C$DW$23        .dwtag  DW_TAG_TI_assign_register, DW_AT_name("SXM")
     267                      .dwattr $C$DW$23, DW_AT_location[DW_OP_reg30]
     268              $C$DW$24        .dwtag  DW_TAG_TI_assign_register, DW_AT_name("PM")
     269                      .dwattr $C$DW$24, DW_AT_location[DW_OP_reg31]
     270              $C$DW$25        .dwtag  DW_TAG_TI_assign_register, DW_AT_name("OVM")
     271                      .dwattr $C$DW$25, DW_AT_location[DW_OP_regx 0x20]
     272              $C$DW$26        .dwtag  DW_TAG_TI_assign_register, DW_AT_name("PAGE0")
     273                      .dwattr $C$DW$26, DW_AT_location[DW_OP_regx 0x21]
     274              $C$DW$27        .dwtag  DW_TAG_TI_assign_register, DW_AT_name("AMODE")
     275                      .dwattr $C$DW$27, DW_AT_location[DW_OP_regx 0x22]
TMS320C2000 Assembler PC v6.2.3 Mon Aug 03 18:20:40 2015

Tools Copyright (c) 1996-2013 Texas Instruments Incorporated
C:\Users\a0220341\AppData\Local\Temp\0740812                         PAGE    6

     276              $C$DW$28        .dwtag  DW_TAG_TI_assign_register, DW_AT_name("INTM")
     277                      .dwattr $C$DW$28, DW_AT_location[DW_OP_regx 0x23]
     278              $C$DW$29        .dwtag  DW_TAG_TI_assign_register, DW_AT_name("IFR")
     279                      .dwattr $C$DW$29, DW_AT_location[DW_OP_regx 0x24]
     280              $C$DW$30        .dwtag  DW_TAG_TI_assign_register, DW_AT_name("IER")
     281                      .dwattr $C$DW$30, DW_AT_location[DW_OP_regx 0x25]
     282              $C$DW$31        .dwtag  DW_TAG_TI_assign_register, DW_AT_name("V")
     283                      .dwattr $C$DW$31, DW_AT_location[DW_OP_regx 0x26]
     284              $C$DW$32        .dwtag  DW_TAG_TI_assign_register, DW_AT_name("PSEUDOH")
     285                      .dwattr $C$DW$32, DW_AT_location[DW_OP_regx 0x4c]
     286              $C$DW$33        .dwtag  DW_TAG_TI_assign_register, DW_AT_name("VOL")
     287                      .dwattr $C$DW$33, DW_AT_location[DW_OP_regx 0x4d]
     288              $C$DW$34        .dwtag  DW_TAG_TI_assign_register, DW_AT_name("AR0")
     289                      .dwattr $C$DW$34, DW_AT_location[DW_OP_reg4]
     290              $C$DW$35        .dwtag  DW_TAG_TI_assign_register, DW_AT_name("AR1")
     291                      .dwattr $C$DW$35, DW_AT_location[DW_OP_reg6]
     292              $C$DW$36        .dwtag  DW_TAG_TI_assign_register, DW_AT_name("AR2")
     293                      .dwattr $C$DW$36, DW_AT_location[DW_OP_reg8]
     294              $C$DW$37        .dwtag  DW_TAG_TI_assign_register, DW_AT_name("AR3")
     295                      .dwattr $C$DW$37, DW_AT_location[DW_OP_reg10]
     296              $C$DW$38        .dwtag  DW_TAG_TI_assign_register, DW_AT_name("AR4")
     297                      .dwattr $C$DW$38, DW_AT_location[DW_OP_reg12]
     298              $C$DW$39        .dwtag  DW_TAG_TI_assign_register, DW_AT_name("AR5")
     299                      .dwattr $C$DW$39, DW_AT_location[DW_OP_reg14]
     300              $C$DW$40        .dwtag  DW_TAG_TI_assign_register, DW_AT_name("AR6")
     301                      .dwattr $C$DW$40, DW_AT_location[DW_OP_reg16]
     302              $C$DW$41        .dwtag  DW_TAG_TI_assign_register, DW_AT_name("XAR6")
     303                      .dwattr $C$DW$41, DW_AT_location[DW_OP_reg17]
     304              $C$DW$42        .dwtag  DW_TAG_TI_assign_register, DW_AT_name("AR7")
     305                      .dwattr $C$DW$42, DW_AT_location[DW_OP_reg18]
     306              $C$DW$43        .dwtag  DW_TAG_TI_assign_register, DW_AT_name("XAR7")
     307                      .dwattr $C$DW$43, DW_AT_location[DW_OP_reg19]
     308              $C$DW$44        .dwtag  DW_TAG_TI_assign_register, DW_AT_name("XAR0")
     309                      .dwattr $C$DW$44, DW_AT_location[DW_OP_reg5]
     310              $C$DW$45        .dwtag  DW_TAG_TI_assign_register, DW_AT_name("XAR1")
     311                      .dwattr $C$DW$45, DW_AT_location[DW_OP_reg7]
     312              $C$DW$46        .dwtag  DW_TAG_TI_assign_register, DW_AT_name("XAR2")
     313                      .dwattr $C$DW$46, DW_AT_location[DW_OP_reg9]
     314              $C$DW$47        .dwtag  DW_TAG_TI_assign_register, DW_AT_name("XAR3")
     315                      .dwattr $C$DW$47, DW_AT_location[DW_OP_reg11]
     316              $C$DW$48        .dwtag  DW_TAG_TI_assign_register, DW_AT_name("XAR4")
     317                      .dwattr $C$DW$48, DW_AT_location[DW_OP_reg13]
     318              $C$DW$49        .dwtag  DW_TAG_TI_assign_register, DW_AT_name("XAR5")
     319                      .dwattr $C$DW$49, DW_AT_location[DW_OP_reg15]
     320              $C$DW$50        .dwtag  DW_TAG_TI_assign_register, DW_AT_name("CIE_RETA")
     321                      .dwattr $C$DW$50, DW_AT_location[DW_OP_regx 0x4e]
     322                      .dwendtag $C$DW$CU
     323              

No Assembly Errors, No Assembly Warnings
