TMS320C2000 Assembler PC v6.2.3 Mon Aug 03 18:20:51 2015

Tools Copyright (c) 1996-2013 Texas Instruments Incorporated
C:\Users\a0220341\AppData\Local\Temp\3112010                         PAGE    1

       1              ;***************************************************************
       2              ;* TMS320C2000 C/C++ Codegen                         PC v6.2.3 *
       3              ;* Date/Time created: Mon Aug 03 18:20:50 2015                 *
       4              ;***************************************************************
       5                      .compiler_opts --float_support=softlib --hll_source=on --mem_model:code=flat --mem_model:data=large -
       6        0002  FP      .set    XAR2
       7              
       8              $C$DW$CU        .dwtag  DW_TAG_compile_unit
       9                      .dwattr $C$DW$CU, DW_AT_name("D:/victor TI/Customer issue/Zero/4inOne/Code/sw/drivers/pwm/src/32b/f28
      10                      .dwattr $C$DW$CU, DW_AT_producer("TMS320C2000 C/C++ Codegen PC v6.2.3 Copyright (c) 1996-2013 Texas I
      11                      .dwattr $C$DW$CU, DW_AT_TI_version(0x01)
      12                      .dwattr $C$DW$CU, DW_AT_comp_dir("D:\victor TI\Customer issue\Zero\4inOne\Code\sw\solutions\instaspin
      13              ;       C:\ti\ccsv6\tools\compiler\ti-cgt-c2000_6.2.3\bin\opt2000.exe C:\\Users\\a0220341\\AppData\\Local\\Te
      14              ;       C:\ti\ccsv6\tools\compiler\ti-cgt-c2000_6.2.3\bin\ac2000.exe -@C:\\Users\\a0220341\\AppData\\Local\\T
      15 00000000               .sect   ".text"
      16                      .global _PWM_setTripZoneState_TZB
      17              
      18              $C$DW$1 .dwtag  DW_TAG_subprogram, DW_AT_name("PWM_setTripZoneState_TZB")
      19                      .dwattr $C$DW$1, DW_AT_low_pc(_PWM_setTripZoneState_TZB)
      20                      .dwattr $C$DW$1, DW_AT_high_pc(0x00)
      21                      .dwattr $C$DW$1, DW_AT_TI_symbol_name("_PWM_setTripZoneState_TZB")
      22                      .dwattr $C$DW$1, DW_AT_external
      23                      .dwattr $C$DW$1, DW_AT_TI_begin_file("D:/victor TI/Customer issue/Zero/4inOne/Code/sw/drivers/pwm/src
      24                      .dwattr $C$DW$1, DW_AT_TI_begin_line(0x654)
      25                      .dwattr $C$DW$1, DW_AT_TI_begin_column(0x06)
      26                      .dwattr $C$DW$1, DW_AT_TI_max_frame_size(-2)
      27                      .dwpsn  file "D:/victor TI/Customer issue/Zero/4inOne/Code/sw/drivers/pwm/src/32b/f28x/f2802x/pwm.c",
      28              
      29                      .dwfde $C$DW$CIE, _PWM_setTripZoneState_TZB
      30              $C$DW$2 .dwtag  DW_TAG_formal_parameter, DW_AT_name("pwmHandle")
      31                      .dwattr $C$DW$2, DW_AT_TI_symbol_name("_pwmHandle")
      32                      .dwattr $C$DW$2, DW_AT_type(*$C$DW$T$33)
      33                      .dwattr $C$DW$2, DW_AT_location[DW_OP_reg12]
      34              $C$DW$3 .dwtag  DW_TAG_formal_parameter, DW_AT_name("tripZoneState")
      35                      .dwattr $C$DW$3, DW_AT_TI_symbol_name("_tripZoneState")
      36                      .dwattr $C$DW$3, DW_AT_type(*$C$DW$T$125)
      37                      .dwattr $C$DW$3, DW_AT_location[DW_OP_reg0]
      38              
      39              ;***************************************************************
      40              ;* FNAME: _PWM_setTripZoneState_TZB     FR SIZE:   0           *
      41              ;*                                                             *
      42              ;* FUNCTION ENVIRONMENT                                        *
      43              ;*                                                             *
      44              ;* FUNCTION PROPERTIES                                         *
      45              ;*                            0 Parameter,  0 Auto,  0 SOE     *
      46              ;***************************************************************
      47              
      48              _PWM_setTripZoneState_TZB:
      49              ;* AR4   assigned to _pwmHandle
      50              $C$DW$4 .dwtag  DW_TAG_variable, DW_AT_name("pwmHandle")
      51                      .dwattr $C$DW$4, DW_AT_TI_symbol_name("_pwmHandle")
      52                      .dwattr $C$DW$4, DW_AT_type(*$C$DW$T$127)
      53                      .dwattr $C$DW$4, DW_AT_location[DW_OP_reg12]
      54              ;* AL    assigned to _tripZoneState
      55              $C$DW$5 .dwtag  DW_TAG_variable, DW_AT_name("tripZoneState")
TMS320C2000 Assembler PC v6.2.3 Mon Aug 03 18:20:51 2015

Tools Copyright (c) 1996-2013 Texas Instruments Incorporated
C:\Users\a0220341\AppData\Local\Temp\3112010                         PAGE    2

      56                      .dwattr $C$DW$5, DW_AT_TI_symbol_name("_tripZoneState")
      57                      .dwattr $C$DW$5, DW_AT_type(*$C$DW$T$125)
      58                      .dwattr $C$DW$5, DW_AT_location[DW_OP_reg0]
      59                      .dwcfi  cfa_offset, -2
      60                      .dwcfi  save_reg_to_mem, 26, 0
      61                      .dwcfi  save_reg_to_reg, 78, 26
      62 00000000 7622   EALLOW
      63                      .dwpsn  file "D:/victor TI/Customer issue/Zero/4inOne/Code/sw/drivers/pwm/src/32b/f28x/f2802x/pwm.c",
      64 00000001 83A4          MOVL      XAR5,XAR4             ; [CPU_] |1628| 
      65                      .dwpsn  file "D:/victor TI/Customer issue/Zero/4inOne/Code/sw/drivers/pwm/src/32b/f28x/f2802x/pwm.c",
      66 00000002 5603          MOV       ACC,AL << #2          ; [CPU_] |1631| 
         00000003 02A9 
      67 00000004 DC14          ADDB      XAR4,#20              ; [CPU_] |1631| 
      68                      .dwpsn  file "D:/victor TI/Customer issue/Zero/4inOne/Code/sw/drivers/pwm/src/32b/f28x/f2802x/pwm.c",
      69 00000005 DD14          ADDB      XAR5,#20              ; [CPU_] |1628| 
      70 00000006 18C5          AND       *+XAR5[0],#0xfff3     ; [CPU_] |1628| 
         00000007 FFF3 
      71                      .dwpsn  file "D:/victor TI/Customer issue/Zero/4inOne/Code/sw/drivers/pwm/src/32b/f28x/f2802x/pwm.c",
      72 00000008 98C4          OR        *+XAR4[0],AL          ; [CPU_] |1631| 
      73 00000009 761A   EDIS
      74 0000000a FF69          SPM       #0                    ; [CPU_] 
      75              $C$DW$6 .dwtag  DW_TAG_TI_branch
      76                      .dwattr $C$DW$6, DW_AT_low_pc(0x00)
      77                      .dwattr $C$DW$6, DW_AT_TI_return
      78 0000000b 0006          LRETR     ; [CPU_] 
      79                      ; return occurs ; [] 
      80                      .dwattr $C$DW$1, DW_AT_TI_end_file("D:/victor TI/Customer issue/Zero/4inOne/Code/sw/drivers/pwm/src/3
      81                      .dwattr $C$DW$1, DW_AT_TI_end_line(0x664)
      82                      .dwattr $C$DW$1, DW_AT_TI_end_column(0x01)
      83                      .dwendentry
      84                      .dwendtag $C$DW$1
      85              
      86 0000000c               .sect   ".text"
      87                      .global _PWM_setTripZoneState_TZA
      88              
      89              $C$DW$7 .dwtag  DW_TAG_subprogram, DW_AT_name("PWM_setTripZoneState_TZA")
      90                      .dwattr $C$DW$7, DW_AT_low_pc(_PWM_setTripZoneState_TZA)
      91                      .dwattr $C$DW$7, DW_AT_high_pc(0x00)
      92                      .dwattr $C$DW$7, DW_AT_TI_symbol_name("_PWM_setTripZoneState_TZA")
      93                      .dwattr $C$DW$7, DW_AT_external
      94                      .dwattr $C$DW$7, DW_AT_TI_begin_file("D:/victor TI/Customer issue/Zero/4inOne/Code/sw/drivers/pwm/src
      95                      .dwattr $C$DW$7, DW_AT_TI_begin_line(0x641)
      96                      .dwattr $C$DW$7, DW_AT_TI_begin_column(0x06)
      97                      .dwattr $C$DW$7, DW_AT_TI_max_frame_size(-2)
      98                      .dwpsn  file "D:/victor TI/Customer issue/Zero/4inOne/Code/sw/drivers/pwm/src/32b/f28x/f2802x/pwm.c",
      99              
     100                      .dwfde $C$DW$CIE, _PWM_setTripZoneState_TZA
     101              $C$DW$8 .dwtag  DW_TAG_formal_parameter, DW_AT_name("pwmHandle")
     102                      .dwattr $C$DW$8, DW_AT_TI_symbol_name("_pwmHandle")
     103                      .dwattr $C$DW$8, DW_AT_type(*$C$DW$T$33)
     104                      .dwattr $C$DW$8, DW_AT_location[DW_OP_reg12]
     105              $C$DW$9 .dwtag  DW_TAG_formal_parameter, DW_AT_name("tripZoneState")
     106                      .dwattr $C$DW$9, DW_AT_TI_symbol_name("_tripZoneState")
     107                      .dwattr $C$DW$9, DW_AT_type(*$C$DW$T$125)
     108                      .dwattr $C$DW$9, DW_AT_location[DW_OP_reg0]
TMS320C2000 Assembler PC v6.2.3 Mon Aug 03 18:20:51 2015

Tools Copyright (c) 1996-2013 Texas Instruments Incorporated
C:\Users\a0220341\AppData\Local\Temp\3112010                         PAGE    3

     109              
     110              ;***************************************************************
     111              ;* FNAME: _PWM_setTripZoneState_TZA     FR SIZE:   0           *
     112              ;*                                                             *
     113              ;* FUNCTION ENVIRONMENT                                        *
     114              ;*                                                             *
     115              ;* FUNCTION PROPERTIES                                         *
     116              ;*                            0 Parameter,  0 Auto,  0 SOE     *
     117              ;***************************************************************
     118              
     119              _PWM_setTripZoneState_TZA:
     120              ;* AR4   assigned to _pwmHandle
     121              $C$DW$10        .dwtag  DW_TAG_variable, DW_AT_name("pwmHandle")
     122                      .dwattr $C$DW$10, DW_AT_TI_symbol_name("_pwmHandle")
     123                      .dwattr $C$DW$10, DW_AT_type(*$C$DW$T$127)
     124                      .dwattr $C$DW$10, DW_AT_location[DW_OP_reg12]
     125              ;* AL    assigned to _tripZoneState
     126              $C$DW$11        .dwtag  DW_TAG_variable, DW_AT_name("tripZoneState")
     127                      .dwattr $C$DW$11, DW_AT_TI_symbol_name("_tripZoneState")
     128                      .dwattr $C$DW$11, DW_AT_type(*$C$DW$T$125)
     129                      .dwattr $C$DW$11, DW_AT_location[DW_OP_reg0]
     130                      .dwcfi  cfa_offset, -2
     131                      .dwcfi  save_reg_to_mem, 26, 0
     132                      .dwcfi  save_reg_to_reg, 78, 26
     133 0000000c 7622   EALLOW
     134                      .dwpsn  file "D:/victor TI/Customer issue/Zero/4inOne/Code/sw/drivers/pwm/src/32b/f28x/f2802x/pwm.c",
     135 0000000d 83A4          MOVL      XAR5,XAR4             ; [CPU_] |1609| 
     136                      .dwpsn  file "D:/victor TI/Customer issue/Zero/4inOne/Code/sw/drivers/pwm/src/32b/f28x/f2802x/pwm.c",
     137 0000000e DC14          ADDB      XAR4,#20              ; [CPU_] |1612| 
     138                      .dwpsn  file "D:/victor TI/Customer issue/Zero/4inOne/Code/sw/drivers/pwm/src/32b/f28x/f2802x/pwm.c",
     139 0000000f DD14          ADDB      XAR5,#20              ; [CPU_] |1609| 
     140 00000010 18C5          AND       *+XAR5[0],#0xfffc     ; [CPU_] |1609| 
         00000011 FFFC 
     141                      .dwpsn  file "D:/victor TI/Customer issue/Zero/4inOne/Code/sw/drivers/pwm/src/32b/f28x/f2802x/pwm.c",
     142 00000012 98C4          OR        *+XAR4[0],AL          ; [CPU_] |1612| 
     143 00000013 761A   EDIS
     144 00000014 FF69          SPM       #0                    ; [CPU_] 
     145              $C$DW$12        .dwtag  DW_TAG_TI_branch
     146                      .dwattr $C$DW$12, DW_AT_low_pc(0x00)
     147                      .dwattr $C$DW$12, DW_AT_TI_return
     148 00000015 0006          LRETR     ; [CPU_] 
     149                      ; return occurs ; [] 
     150                      .dwattr $C$DW$7, DW_AT_TI_end_file("D:/victor TI/Customer issue/Zero/4inOne/Code/sw/drivers/pwm/src/3
     151                      .dwattr $C$DW$7, DW_AT_TI_end_line(0x651)
     152                      .dwattr $C$DW$7, DW_AT_TI_end_column(0x01)
     153                      .dwendentry
     154                      .dwendtag $C$DW$7
     155              
     156 00000016               .sect   ".text"
     157                      .global _PWM_setTripZoneState_DCBEVT2
     158              
     159              $C$DW$13        .dwtag  DW_TAG_subprogram, DW_AT_name("PWM_setTripZoneState_DCBEVT2")
     160                      .dwattr $C$DW$13, DW_AT_low_pc(_PWM_setTripZoneState_DCBEVT2)
     161                      .dwattr $C$DW$13, DW_AT_high_pc(0x00)
     162                      .dwattr $C$DW$13, DW_AT_TI_symbol_name("_PWM_setTripZoneState_DCBEVT2")
TMS320C2000 Assembler PC v6.2.3 Mon Aug 03 18:20:51 2015

Tools Copyright (c) 1996-2013 Texas Instruments Incorporated
C:\Users\a0220341\AppData\Local\Temp\3112010                         PAGE    4

     163                      .dwattr $C$DW$13, DW_AT_external
     164                      .dwattr $C$DW$13, DW_AT_TI_begin_file("D:/victor TI/Customer issue/Zero/4inOne/Code/sw/drivers/pwm/sr
     165                      .dwattr $C$DW$13, DW_AT_TI_begin_line(0x62e)
     166                      .dwattr $C$DW$13, DW_AT_TI_begin_column(0x06)
     167                      .dwattr $C$DW$13, DW_AT_TI_max_frame_size(-2)
     168                      .dwpsn  file "D:/victor TI/Customer issue/Zero/4inOne/Code/sw/drivers/pwm/src/32b/f28x/f2802x/pwm.c",
     169              
     170                      .dwfde $C$DW$CIE, _PWM_setTripZoneState_DCBEVT2
     171              $C$DW$14        .dwtag  DW_TAG_formal_parameter, DW_AT_name("pwmHandle")
     172                      .dwattr $C$DW$14, DW_AT_TI_symbol_name("_pwmHandle")
     173                      .dwattr $C$DW$14, DW_AT_type(*$C$DW$T$33)
     174                      .dwattr $C$DW$14, DW_AT_location[DW_OP_reg12]
     175              $C$DW$15        .dwtag  DW_TAG_formal_parameter, DW_AT_name("tripZoneState")
     176                      .dwattr $C$DW$15, DW_AT_TI_symbol_name("_tripZoneState")
     177                      .dwattr $C$DW$15, DW_AT_type(*$C$DW$T$125)
     178                      .dwattr $C$DW$15, DW_AT_location[DW_OP_reg0]
     179              
     180              ;***************************************************************
     181              ;* FNAME: _PWM_setTripZoneState_DCBEVT2 FR SIZE:   0           *
     182              ;*                                                             *
     183              ;* FUNCTION ENVIRONMENT                                        *
     184              ;*                                                             *
     185              ;* FUNCTION PROPERTIES                                         *
     186              ;*                            0 Parameter,  0 Auto,  0 SOE     *
     187              ;***************************************************************
     188              
     189              _PWM_setTripZoneState_DCBEVT2:
     190              ;* AR4   assigned to _pwmHandle
     191              $C$DW$16        .dwtag  DW_TAG_variable, DW_AT_name("pwmHandle")
     192                      .dwattr $C$DW$16, DW_AT_TI_symbol_name("_pwmHandle")
     193                      .dwattr $C$DW$16, DW_AT_type(*$C$DW$T$127)
     194                      .dwattr $C$DW$16, DW_AT_location[DW_OP_reg12]
     195              ;* AL    assigned to _tripZoneState
     196              $C$DW$17        .dwtag  DW_TAG_variable, DW_AT_name("tripZoneState")
     197                      .dwattr $C$DW$17, DW_AT_TI_symbol_name("_tripZoneState")
     198                      .dwattr $C$DW$17, DW_AT_type(*$C$DW$T$125)
     199                      .dwattr $C$DW$17, DW_AT_location[DW_OP_reg0]
     200                      .dwcfi  cfa_offset, -2
     201                      .dwcfi  save_reg_to_mem, 26, 0
     202                      .dwcfi  save_reg_to_reg, 78, 26
     203 00000016 7622   EALLOW
     204                      .dwpsn  file "D:/victor TI/Customer issue/Zero/4inOne/Code/sw/drivers/pwm/src/32b/f28x/f2802x/pwm.c",
     205 00000017 83A4          MOVL      XAR5,XAR4             ; [CPU_] |1590| 
     206                      .dwpsn  file "D:/victor TI/Customer issue/Zero/4inOne/Code/sw/drivers/pwm/src/32b/f28x/f2802x/pwm.c",
     207 00000018 5603          MOV       ACC,AL << #10         ; [CPU_] |1593| 
         00000019 0AA9 
     208 0000001a DC14          ADDB      XAR4,#20              ; [CPU_] |1593| 
     209                      .dwpsn  file "D:/victor TI/Customer issue/Zero/4inOne/Code/sw/drivers/pwm/src/32b/f28x/f2802x/pwm.c",
     210 0000001b DD14          ADDB      XAR5,#20              ; [CPU_] |1590| 
     211 0000001c 18C5          AND       *+XAR5[0],#0xf3ff     ; [CPU_] |1590| 
         0000001d F3FF 
     212                      .dwpsn  file "D:/victor TI/Customer issue/Zero/4inOne/Code/sw/drivers/pwm/src/32b/f28x/f2802x/pwm.c",
     213 0000001e 98C4          OR        *+XAR4[0],AL          ; [CPU_] |1593| 
     214 0000001f 761A   EDIS
     215 00000020 FF69          SPM       #0                    ; [CPU_] 
TMS320C2000 Assembler PC v6.2.3 Mon Aug 03 18:20:51 2015

Tools Copyright (c) 1996-2013 Texas Instruments Incorporated
C:\Users\a0220341\AppData\Local\Temp\3112010                         PAGE    5

     216              $C$DW$18        .dwtag  DW_TAG_TI_branch
     217                      .dwattr $C$DW$18, DW_AT_low_pc(0x00)
     218                      .dwattr $C$DW$18, DW_AT_TI_return
     219 00000021 0006          LRETR     ; [CPU_] 
     220                      ; return occurs ; [] 
     221                      .dwattr $C$DW$13, DW_AT_TI_end_file("D:/victor TI/Customer issue/Zero/4inOne/Code/sw/drivers/pwm/src/
     222                      .dwattr $C$DW$13, DW_AT_TI_end_line(0x63e)
     223                      .dwattr $C$DW$13, DW_AT_TI_end_column(0x01)
     224                      .dwendentry
     225                      .dwendtag $C$DW$13
     226              
     227 00000022               .sect   ".text"
     228                      .global _PWM_setTripZoneState_DCBEVT1
     229              
     230              $C$DW$19        .dwtag  DW_TAG_subprogram, DW_AT_name("PWM_setTripZoneState_DCBEVT1")
     231                      .dwattr $C$DW$19, DW_AT_low_pc(_PWM_setTripZoneState_DCBEVT1)
     232                      .dwattr $C$DW$19, DW_AT_high_pc(0x00)
     233                      .dwattr $C$DW$19, DW_AT_TI_symbol_name("_PWM_setTripZoneState_DCBEVT1")
     234                      .dwattr $C$DW$19, DW_AT_external
     235                      .dwattr $C$DW$19, DW_AT_TI_begin_file("D:/victor TI/Customer issue/Zero/4inOne/Code/sw/drivers/pwm/sr
     236                      .dwattr $C$DW$19, DW_AT_TI_begin_line(0x61b)
     237                      .dwattr $C$DW$19, DW_AT_TI_begin_column(0x06)
     238                      .dwattr $C$DW$19, DW_AT_TI_max_frame_size(-2)
     239                      .dwpsn  file "D:/victor TI/Customer issue/Zero/4inOne/Code/sw/drivers/pwm/src/32b/f28x/f2802x/pwm.c",
     240              
     241                      .dwfde $C$DW$CIE, _PWM_setTripZoneState_DCBEVT1
     242              $C$DW$20        .dwtag  DW_TAG_formal_parameter, DW_AT_name("pwmHandle")
     243                      .dwattr $C$DW$20, DW_AT_TI_symbol_name("_pwmHandle")
     244                      .dwattr $C$DW$20, DW_AT_type(*$C$DW$T$33)
     245                      .dwattr $C$DW$20, DW_AT_location[DW_OP_reg12]
     246              $C$DW$21        .dwtag  DW_TAG_formal_parameter, DW_AT_name("tripZoneState")
     247                      .dwattr $C$DW$21, DW_AT_TI_symbol_name("_tripZoneState")
     248                      .dwattr $C$DW$21, DW_AT_type(*$C$DW$T$125)
     249                      .dwattr $C$DW$21, DW_AT_location[DW_OP_reg0]
     250              
     251              ;***************************************************************
     252              ;* FNAME: _PWM_setTripZoneState_DCBEVT1 FR SIZE:   0           *
     253              ;*                                                             *
     254              ;* FUNCTION ENVIRONMENT                                        *
     255              ;*                                                             *
     256              ;* FUNCTION PROPERTIES                                         *
     257              ;*                            0 Parameter,  0 Auto,  0 SOE     *
     258              ;***************************************************************
     259              
     260              _PWM_setTripZoneState_DCBEVT1:
     261              ;* AR4   assigned to _pwmHandle
     262              $C$DW$22        .dwtag  DW_TAG_variable, DW_AT_name("pwmHandle")
     263                      .dwattr $C$DW$22, DW_AT_TI_symbol_name("_pwmHandle")
     264                      .dwattr $C$DW$22, DW_AT_type(*$C$DW$T$127)
     265                      .dwattr $C$DW$22, DW_AT_location[DW_OP_reg12]
     266              ;* AL    assigned to _tripZoneState
     267              $C$DW$23        .dwtag  DW_TAG_variable, DW_AT_name("tripZoneState")
     268                      .dwattr $C$DW$23, DW_AT_TI_symbol_name("_tripZoneState")
     269                      .dwattr $C$DW$23, DW_AT_type(*$C$DW$T$125)
     270                      .dwattr $C$DW$23, DW_AT_location[DW_OP_reg0]
TMS320C2000 Assembler PC v6.2.3 Mon Aug 03 18:20:51 2015

Tools Copyright (c) 1996-2013 Texas Instruments Incorporated
C:\Users\a0220341\AppData\Local\Temp\3112010                         PAGE    6

     271                      .dwcfi  cfa_offset, -2
     272                      .dwcfi  save_reg_to_mem, 26, 0
     273                      .dwcfi  save_reg_to_reg, 78, 26
     274 00000022 7622   EALLOW
     275                      .dwpsn  file "D:/victor TI/Customer issue/Zero/4inOne/Code/sw/drivers/pwm/src/32b/f28x/f2802x/pwm.c",
     276 00000023 83A4          MOVL      XAR5,XAR4             ; [CPU_] |1571| 
     277                      .dwpsn  file "D:/victor TI/Customer issue/Zero/4inOne/Code/sw/drivers/pwm/src/32b/f28x/f2802x/pwm.c",
     278 00000024 5603          MOV       ACC,AL << #8          ; [CPU_] |1574| 
         00000025 08A9 
     279 00000026 DC14          ADDB      XAR4,#20              ; [CPU_] |1574| 
     280                      .dwpsn  file "D:/victor TI/Customer issue/Zero/4inOne/Code/sw/drivers/pwm/src/32b/f28x/f2802x/pwm.c",
     281 00000027 DD14          ADDB      XAR5,#20              ; [CPU_] |1571| 
     282 00000028 18C5          AND       *+XAR5[0],#0xfcff     ; [CPU_] |1571| 
         00000029 FCFF 
     283                      .dwpsn  file "D:/victor TI/Customer issue/Zero/4inOne/Code/sw/drivers/pwm/src/32b/f28x/f2802x/pwm.c",
     284 0000002a 98C4          OR        *+XAR4[0],AL          ; [CPU_] |1574| 
     285 0000002b 761A   EDIS
     286 0000002c FF69          SPM       #0                    ; [CPU_] 
     287              $C$DW$24        .dwtag  DW_TAG_TI_branch
     288                      .dwattr $C$DW$24, DW_AT_low_pc(0x00)
     289                      .dwattr $C$DW$24, DW_AT_TI_return
     290 0000002d 0006          LRETR     ; [CPU_] 
     291                      ; return occurs ; [] 
     292                      .dwattr $C$DW$19, DW_AT_TI_end_file("D:/victor TI/Customer issue/Zero/4inOne/Code/sw/drivers/pwm/src/
     293                      .dwattr $C$DW$19, DW_AT_TI_end_line(0x62b)
     294                      .dwattr $C$DW$19, DW_AT_TI_end_column(0x01)
     295                      .dwendentry
     296                      .dwendtag $C$DW$19
     297              
     298 0000002e               .sect   ".text"
     299                      .global _PWM_setTripZoneState_DCAEVT2
     300              
     301              $C$DW$25        .dwtag  DW_TAG_subprogram, DW_AT_name("PWM_setTripZoneState_DCAEVT2")
     302                      .dwattr $C$DW$25, DW_AT_low_pc(_PWM_setTripZoneState_DCAEVT2)
     303                      .dwattr $C$DW$25, DW_AT_high_pc(0x00)
     304                      .dwattr $C$DW$25, DW_AT_TI_symbol_name("_PWM_setTripZoneState_DCAEVT2")
     305                      .dwattr $C$DW$25, DW_AT_external
     306                      .dwattr $C$DW$25, DW_AT_TI_begin_file("D:/victor TI/Customer issue/Zero/4inOne/Code/sw/drivers/pwm/sr
     307                      .dwattr $C$DW$25, DW_AT_TI_begin_line(0x608)
     308                      .dwattr $C$DW$25, DW_AT_TI_begin_column(0x06)
     309                      .dwattr $C$DW$25, DW_AT_TI_max_frame_size(-2)
     310                      .dwpsn  file "D:/victor TI/Customer issue/Zero/4inOne/Code/sw/drivers/pwm/src/32b/f28x/f2802x/pwm.c",
     311              
     312                      .dwfde $C$DW$CIE, _PWM_setTripZoneState_DCAEVT2
     313              $C$DW$26        .dwtag  DW_TAG_formal_parameter, DW_AT_name("pwmHandle")
     314                      .dwattr $C$DW$26, DW_AT_TI_symbol_name("_pwmHandle")
     315                      .dwattr $C$DW$26, DW_AT_type(*$C$DW$T$33)
     316                      .dwattr $C$DW$26, DW_AT_location[DW_OP_reg12]
     317              $C$DW$27        .dwtag  DW_TAG_formal_parameter, DW_AT_name("tripZoneState")
     318                      .dwattr $C$DW$27, DW_AT_TI_symbol_name("_tripZoneState")
     319                      .dwattr $C$DW$27, DW_AT_type(*$C$DW$T$125)
     320                      .dwattr $C$DW$27, DW_AT_location[DW_OP_reg0]
     321              
     322              ;***************************************************************
     323              ;* FNAME: _PWM_setTripZoneState_DCAEVT2 FR SIZE:   0           *
TMS320C2000 Assembler PC v6.2.3 Mon Aug 03 18:20:51 2015

Tools Copyright (c) 1996-2013 Texas Instruments Incorporated
C:\Users\a0220341\AppData\Local\Temp\3112010                         PAGE    7

     324              ;*                                                             *
     325              ;* FUNCTION ENVIRONMENT                                        *
     326              ;*                                                             *
     327              ;* FUNCTION PROPERTIES                                         *
     328              ;*                            0 Parameter,  0 Auto,  0 SOE     *
     329              ;***************************************************************
     330              
     331              _PWM_setTripZoneState_DCAEVT2:
     332              ;* AR4   assigned to _pwmHandle
     333              $C$DW$28        .dwtag  DW_TAG_variable, DW_AT_name("pwmHandle")
     334                      .dwattr $C$DW$28, DW_AT_TI_symbol_name("_pwmHandle")
     335                      .dwattr $C$DW$28, DW_AT_type(*$C$DW$T$127)
     336                      .dwattr $C$DW$28, DW_AT_location[DW_OP_reg12]
     337              ;* AL    assigned to _tripZoneState
     338              $C$DW$29        .dwtag  DW_TAG_variable, DW_AT_name("tripZoneState")
     339                      .dwattr $C$DW$29, DW_AT_TI_symbol_name("_tripZoneState")
     340                      .dwattr $C$DW$29, DW_AT_type(*$C$DW$T$125)
     341                      .dwattr $C$DW$29, DW_AT_location[DW_OP_reg0]
     342                      .dwcfi  cfa_offset, -2
     343                      .dwcfi  save_reg_to_mem, 26, 0
     344                      .dwcfi  save_reg_to_reg, 78, 26
     345 0000002e 7622   EALLOW
     346                      .dwpsn  file "D:/victor TI/Customer issue/Zero/4inOne/Code/sw/drivers/pwm/src/32b/f28x/f2802x/pwm.c",
     347 0000002f 83A4          MOVL      XAR5,XAR4             ; [CPU_] |1552| 
     348                      .dwpsn  file "D:/victor TI/Customer issue/Zero/4inOne/Code/sw/drivers/pwm/src/32b/f28x/f2802x/pwm.c",
     349 00000030 5603          MOV       ACC,AL << #6          ; [CPU_] |1555| 
         00000031 06A9 
     350 00000032 DC14          ADDB      XAR4,#20              ; [CPU_] |1555| 
     351                      .dwpsn  file "D:/victor TI/Customer issue/Zero/4inOne/Code/sw/drivers/pwm/src/32b/f28x/f2802x/pwm.c",
     352 00000033 DD14          ADDB      XAR5,#20              ; [CPU_] |1552| 
     353 00000034 18C5          AND       *+XAR5[0],#0xff3f     ; [CPU_] |1552| 
         00000035 FF3F 
     354                      .dwpsn  file "D:/victor TI/Customer issue/Zero/4inOne/Code/sw/drivers/pwm/src/32b/f28x/f2802x/pwm.c",
     355 00000036 98C4          OR        *+XAR4[0],AL          ; [CPU_] |1555| 
     356 00000037 761A   EDIS
     357 00000038 FF69          SPM       #0                    ; [CPU_] 
     358              $C$DW$30        .dwtag  DW_TAG_TI_branch
     359                      .dwattr $C$DW$30, DW_AT_low_pc(0x00)
     360                      .dwattr $C$DW$30, DW_AT_TI_return
     361 00000039 0006          LRETR     ; [CPU_] 
     362                      ; return occurs ; [] 
     363                      .dwattr $C$DW$25, DW_AT_TI_end_file("D:/victor TI/Customer issue/Zero/4inOne/Code/sw/drivers/pwm/src/
     364                      .dwattr $C$DW$25, DW_AT_TI_end_line(0x618)
     365                      .dwattr $C$DW$25, DW_AT_TI_end_column(0x01)
     366                      .dwendentry
     367                      .dwendtag $C$DW$25
     368              
     369 0000003a               .sect   ".text"
     370                      .global _PWM_setTripZoneState_DCAEVT1
     371              
     372              $C$DW$31        .dwtag  DW_TAG_subprogram, DW_AT_name("PWM_setTripZoneState_DCAEVT1")
     373                      .dwattr $C$DW$31, DW_AT_low_pc(_PWM_setTripZoneState_DCAEVT1)
     374                      .dwattr $C$DW$31, DW_AT_high_pc(0x00)
     375                      .dwattr $C$DW$31, DW_AT_TI_symbol_name("_PWM_setTripZoneState_DCAEVT1")
     376                      .dwattr $C$DW$31, DW_AT_external
TMS320C2000 Assembler PC v6.2.3 Mon Aug 03 18:20:51 2015

Tools Copyright (c) 1996-2013 Texas Instruments Incorporated
C:\Users\a0220341\AppData\Local\Temp\3112010                         PAGE    8

     377                      .dwattr $C$DW$31, DW_AT_TI_begin_file("D:/victor TI/Customer issue/Zero/4inOne/Code/sw/drivers/pwm/sr
     378                      .dwattr $C$DW$31, DW_AT_TI_begin_line(0x5f5)
     379                      .dwattr $C$DW$31, DW_AT_TI_begin_column(0x06)
     380                      .dwattr $C$DW$31, DW_AT_TI_max_frame_size(-2)
     381                      .dwpsn  file "D:/victor TI/Customer issue/Zero/4inOne/Code/sw/drivers/pwm/src/32b/f28x/f2802x/pwm.c",
     382              
     383                      .dwfde $C$DW$CIE, _PWM_setTripZoneState_DCAEVT1
     384              $C$DW$32        .dwtag  DW_TAG_formal_parameter, DW_AT_name("pwmHandle")
     385                      .dwattr $C$DW$32, DW_AT_TI_symbol_name("_pwmHandle")
     386                      .dwattr $C$DW$32, DW_AT_type(*$C$DW$T$33)
     387                      .dwattr $C$DW$32, DW_AT_location[DW_OP_reg12]
     388              $C$DW$33        .dwtag  DW_TAG_formal_parameter, DW_AT_name("tripZoneState")
     389                      .dwattr $C$DW$33, DW_AT_TI_symbol_name("_tripZoneState")
     390                      .dwattr $C$DW$33, DW_AT_type(*$C$DW$T$125)
     391                      .dwattr $C$DW$33, DW_AT_location[DW_OP_reg0]
     392              
     393              ;***************************************************************
     394              ;* FNAME: _PWM_setTripZoneState_DCAEVT1 FR SIZE:   0           *
     395              ;*                                                             *
     396              ;* FUNCTION ENVIRONMENT                                        *
     397              ;*                                                             *
     398              ;* FUNCTION PROPERTIES                                         *
     399              ;*                            0 Parameter,  0 Auto,  0 SOE     *
     400              ;***************************************************************
     401              
     402              _PWM_setTripZoneState_DCAEVT1:
     403              ;* AR4   assigned to _pwmHandle
     404              $C$DW$34        .dwtag  DW_TAG_variable, DW_AT_name("pwmHandle")
     405                      .dwattr $C$DW$34, DW_AT_TI_symbol_name("_pwmHandle")
     406                      .dwattr $C$DW$34, DW_AT_type(*$C$DW$T$127)
     407                      .dwattr $C$DW$34, DW_AT_location[DW_OP_reg12]
     408              ;* AL    assigned to _tripZoneState
     409              $C$DW$35        .dwtag  DW_TAG_variable, DW_AT_name("tripZoneState")
     410                      .dwattr $C$DW$35, DW_AT_TI_symbol_name("_tripZoneState")
     411                      .dwattr $C$DW$35, DW_AT_type(*$C$DW$T$125)
     412                      .dwattr $C$DW$35, DW_AT_location[DW_OP_reg0]
     413                      .dwcfi  cfa_offset, -2
     414                      .dwcfi  save_reg_to_mem, 26, 0
     415                      .dwcfi  save_reg_to_reg, 78, 26
     416 0000003a 7622   EALLOW
     417                      .dwpsn  file "D:/victor TI/Customer issue/Zero/4inOne/Code/sw/drivers/pwm/src/32b/f28x/f2802x/pwm.c",
     418 0000003b 83A4          MOVL      XAR5,XAR4             ; [CPU_] |1533| 
     419                      .dwpsn  file "D:/victor TI/Customer issue/Zero/4inOne/Code/sw/drivers/pwm/src/32b/f28x/f2802x/pwm.c",
     420 0000003c 5603          MOV       ACC,AL << #4          ; [CPU_] |1536| 
         0000003d 04A9 
     421 0000003e DC14          ADDB      XAR4,#20              ; [CPU_] |1536| 
     422                      .dwpsn  file "D:/victor TI/Customer issue/Zero/4inOne/Code/sw/drivers/pwm/src/32b/f28x/f2802x/pwm.c",
     423 0000003f DD14          ADDB      XAR5,#20              ; [CPU_] |1533| 
     424 00000040 18C5          AND       *+XAR5[0],#0xffcf     ; [CPU_] |1533| 
         00000041 FFCF 
     425                      .dwpsn  file "D:/victor TI/Customer issue/Zero/4inOne/Code/sw/drivers/pwm/src/32b/f28x/f2802x/pwm.c",
     426 00000042 98C4          OR        *+XAR4[0],AL          ; [CPU_] |1536| 
     427 00000043 761A   EDIS
     428 00000044 FF69          SPM       #0                    ; [CPU_] 
     429              $C$DW$36        .dwtag  DW_TAG_TI_branch
TMS320C2000 Assembler PC v6.2.3 Mon Aug 03 18:20:51 2015

Tools Copyright (c) 1996-2013 Texas Instruments Incorporated
C:\Users\a0220341\AppData\Local\Temp\3112010                         PAGE    9

     430                      .dwattr $C$DW$36, DW_AT_low_pc(0x00)
     431                      .dwattr $C$DW$36, DW_AT_TI_return
     432 00000045 0006          LRETR     ; [CPU_] 
     433                      ; return occurs ; [] 
     434                      .dwattr $C$DW$31, DW_AT_TI_end_file("D:/victor TI/Customer issue/Zero/4inOne/Code/sw/drivers/pwm/src/
     435                      .dwattr $C$DW$31, DW_AT_TI_end_line(0x605)
     436                      .dwattr $C$DW$31, DW_AT_TI_end_column(0x01)
     437                      .dwendentry
     438                      .dwendtag $C$DW$31
     439              
     440 00000046               .sect   ".text"
     441                      .global _PWM_setTripZoneDCEventSelect_DCBEVT2
     442              
     443              $C$DW$37        .dwtag  DW_TAG_subprogram, DW_AT_name("PWM_setTripZoneDCEventSelect_DCBEVT2")
     444                      .dwattr $C$DW$37, DW_AT_low_pc(_PWM_setTripZoneDCEventSelect_DCBEVT2)
     445                      .dwattr $C$DW$37, DW_AT_high_pc(0x00)
     446                      .dwattr $C$DW$37, DW_AT_TI_symbol_name("_PWM_setTripZoneDCEventSelect_DCBEVT2")
     447                      .dwattr $C$DW$37, DW_AT_external
     448                      .dwattr $C$DW$37, DW_AT_TI_begin_file("D:/victor TI/Customer issue/Zero/4inOne/Code/sw/drivers/pwm/sr
     449                      .dwattr $C$DW$37, DW_AT_TI_begin_line(0x5e2)
     450                      .dwattr $C$DW$37, DW_AT_TI_begin_column(0x06)
     451                      .dwattr $C$DW$37, DW_AT_TI_max_frame_size(-2)
     452                      .dwpsn  file "D:/victor TI/Customer issue/Zero/4inOne/Code/sw/drivers/pwm/src/32b/f28x/f2802x/pwm.c",
     453              
     454                      .dwfde $C$DW$CIE, _PWM_setTripZoneDCEventSelect_DCBEVT2
     455              $C$DW$38        .dwtag  DW_TAG_formal_parameter, DW_AT_name("pwmHandle")
     456                      .dwattr $C$DW$38, DW_AT_TI_symbol_name("_pwmHandle")
     457                      .dwattr $C$DW$38, DW_AT_type(*$C$DW$T$33)
     458                      .dwattr $C$DW$38, DW_AT_location[DW_OP_reg12]
     459              $C$DW$39        .dwtag  DW_TAG_formal_parameter, DW_AT_name("tripZoneEvent")
     460                      .dwattr $C$DW$39, DW_AT_TI_symbol_name("_tripZoneEvent")
     461                      .dwattr $C$DW$39, DW_AT_type(*$C$DW$T$122)
     462                      .dwattr $C$DW$39, DW_AT_location[DW_OP_reg0]
     463              
     464              ;***************************************************************
     465              ;* FNAME: _PWM_setTripZoneDCEventSelect_DCBEVT2 FR SIZE:   0           *
     466              ;*                                                             *
     467              ;* FUNCTION ENVIRONMENT                                        *
     468              ;*                                                             *
     469              ;* FUNCTION PROPERTIES                                         *
     470              ;*                            0 Parameter,  0 Auto,  0 SOE     *
     471              ;***************************************************************
     472              
     473              _PWM_setTripZoneDCEventSelect_DCBEVT2:
     474              ;* AR4   assigned to _pwmHandle
     475              $C$DW$40        .dwtag  DW_TAG_variable, DW_AT_name("pwmHandle")
     476                      .dwattr $C$DW$40, DW_AT_TI_symbol_name("_pwmHandle")
     477                      .dwattr $C$DW$40, DW_AT_type(*$C$DW$T$127)
     478                      .dwattr $C$DW$40, DW_AT_location[DW_OP_reg12]
     479              ;* AL    assigned to _tripZoneEvent
     480              $C$DW$41        .dwtag  DW_TAG_variable, DW_AT_name("tripZoneEvent")
     481                      .dwattr $C$DW$41, DW_AT_TI_symbol_name("_tripZoneEvent")
     482                      .dwattr $C$DW$41, DW_AT_type(*$C$DW$T$122)
     483                      .dwattr $C$DW$41, DW_AT_location[DW_OP_reg0]
     484                      .dwcfi  cfa_offset, -2
TMS320C2000 Assembler PC v6.2.3 Mon Aug 03 18:20:51 2015

Tools Copyright (c) 1996-2013 Texas Instruments Incorporated
C:\Users\a0220341\AppData\Local\Temp\3112010                         PAGE   10

     485                      .dwcfi  save_reg_to_mem, 26, 0
     486                      .dwcfi  save_reg_to_reg, 78, 26
     487 00000046 7622   EALLOW
     488                      .dwpsn  file "D:/victor TI/Customer issue/Zero/4inOne/Code/sw/drivers/pwm/src/32b/f28x/f2802x/pwm.c",
     489 00000047 83A4          MOVL      XAR5,XAR4             ; [CPU_] |1514| 
     490                      .dwpsn  file "D:/victor TI/Customer issue/Zero/4inOne/Code/sw/drivers/pwm/src/32b/f28x/f2802x/pwm.c",
     491 00000048 5603          MOV       ACC,AL << #9          ; [CPU_] |1517| 
         00000049 09A9 
     492 0000004a DC13          ADDB      XAR4,#19              ; [CPU_] |1517| 
     493                      .dwpsn  file "D:/victor TI/Customer issue/Zero/4inOne/Code/sw/drivers/pwm/src/32b/f28x/f2802x/pwm.c",
     494 0000004b DD13          ADDB      XAR5,#19              ; [CPU_] |1514| 
     495 0000004c 18C5          AND       *+XAR5[0],#0xf1ff     ; [CPU_] |1514| 
         0000004d F1FF 
     496                      .dwpsn  file "D:/victor TI/Customer issue/Zero/4inOne/Code/sw/drivers/pwm/src/32b/f28x/f2802x/pwm.c",
     497 0000004e 98C4          OR        *+XAR4[0],AL          ; [CPU_] |1517| 
     498 0000004f 761A   EDIS
     499 00000050 FF69          SPM       #0                    ; [CPU_] 
     500              $C$DW$42        .dwtag  DW_TAG_TI_branch
     501                      .dwattr $C$DW$42, DW_AT_low_pc(0x00)
     502                      .dwattr $C$DW$42, DW_AT_TI_return
     503 00000051 0006          LRETR     ; [CPU_] 
     504                      ; return occurs ; [] 
     505                      .dwattr $C$DW$37, DW_AT_TI_end_file("D:/victor TI/Customer issue/Zero/4inOne/Code/sw/drivers/pwm/src/
     506                      .dwattr $C$DW$37, DW_AT_TI_end_line(0x5f2)
     507                      .dwattr $C$DW$37, DW_AT_TI_end_column(0x01)
     508                      .dwendentry
     509                      .dwendtag $C$DW$37
     510              
     511 00000052               .sect   ".text"
     512                      .global _PWM_setTripZoneDCEventSelect_DCBEVT1
     513              
     514              $C$DW$43        .dwtag  DW_TAG_subprogram, DW_AT_name("PWM_setTripZoneDCEventSelect_DCBEVT1")
     515                      .dwattr $C$DW$43, DW_AT_low_pc(_PWM_setTripZoneDCEventSelect_DCBEVT1)
     516                      .dwattr $C$DW$43, DW_AT_high_pc(0x00)
     517                      .dwattr $C$DW$43, DW_AT_TI_symbol_name("_PWM_setTripZoneDCEventSelect_DCBEVT1")
     518                      .dwattr $C$DW$43, DW_AT_external
     519                      .dwattr $C$DW$43, DW_AT_TI_begin_file("D:/victor TI/Customer issue/Zero/4inOne/Code/sw/drivers/pwm/sr
     520                      .dwattr $C$DW$43, DW_AT_TI_begin_line(0x5cf)
     521                      .dwattr $C$DW$43, DW_AT_TI_begin_column(0x06)
     522                      .dwattr $C$DW$43, DW_AT_TI_max_frame_size(-2)
     523                      .dwpsn  file "D:/victor TI/Customer issue/Zero/4inOne/Code/sw/drivers/pwm/src/32b/f28x/f2802x/pwm.c",
     524              
     525                      .dwfde $C$DW$CIE, _PWM_setTripZoneDCEventSelect_DCBEVT1
     526              $C$DW$44        .dwtag  DW_TAG_formal_parameter, DW_AT_name("pwmHandle")
     527                      .dwattr $C$DW$44, DW_AT_TI_symbol_name("_pwmHandle")
     528                      .dwattr $C$DW$44, DW_AT_type(*$C$DW$T$33)
     529                      .dwattr $C$DW$44, DW_AT_location[DW_OP_reg12]
     530              $C$DW$45        .dwtag  DW_TAG_formal_parameter, DW_AT_name("tripZoneEvent")
     531                      .dwattr $C$DW$45, DW_AT_TI_symbol_name("_tripZoneEvent")
     532                      .dwattr $C$DW$45, DW_AT_type(*$C$DW$T$122)
     533                      .dwattr $C$DW$45, DW_AT_location[DW_OP_reg0]
     534              
     535              ;***************************************************************
     536              ;* FNAME: _PWM_setTripZoneDCEventSelect_DCBEVT1 FR SIZE:   0           *
     537              ;*                                                             *
TMS320C2000 Assembler PC v6.2.3 Mon Aug 03 18:20:51 2015

Tools Copyright (c) 1996-2013 Texas Instruments Incorporated
C:\Users\a0220341\AppData\Local\Temp\3112010                         PAGE   11

     538              ;* FUNCTION ENVIRONMENT                                        *
     539              ;*                                                             *
     540              ;* FUNCTION PROPERTIES                                         *
     541              ;*                            0 Parameter,  0 Auto,  0 SOE     *
     542              ;***************************************************************
     543              
     544              _PWM_setTripZoneDCEventSelect_DCBEVT1:
     545              ;* AR4   assigned to _pwmHandle
     546              $C$DW$46        .dwtag  DW_TAG_variable, DW_AT_name("pwmHandle")
     547                      .dwattr $C$DW$46, DW_AT_TI_symbol_name("_pwmHandle")
     548                      .dwattr $C$DW$46, DW_AT_type(*$C$DW$T$127)
     549                      .dwattr $C$DW$46, DW_AT_location[DW_OP_reg12]
     550              ;* AL    assigned to _tripZoneEvent
     551              $C$DW$47        .dwtag  DW_TAG_variable, DW_AT_name("tripZoneEvent")
     552                      .dwattr $C$DW$47, DW_AT_TI_symbol_name("_tripZoneEvent")
     553                      .dwattr $C$DW$47, DW_AT_type(*$C$DW$T$122)
     554                      .dwattr $C$DW$47, DW_AT_location[DW_OP_reg0]
     555                      .dwcfi  cfa_offset, -2
     556                      .dwcfi  save_reg_to_mem, 26, 0
     557                      .dwcfi  save_reg_to_reg, 78, 26
     558 00000052 7622   EALLOW
     559                      .dwpsn  file "D:/victor TI/Customer issue/Zero/4inOne/Code/sw/drivers/pwm/src/32b/f28x/f2802x/pwm.c",
     560 00000053 83A4          MOVL      XAR5,XAR4             ; [CPU_] |1495| 
     561                      .dwpsn  file "D:/victor TI/Customer issue/Zero/4inOne/Code/sw/drivers/pwm/src/32b/f28x/f2802x/pwm.c",
     562 00000054 5603          MOV       ACC,AL << #6          ; [CPU_] |1498| 
         00000055 06A9 
     563 00000056 DC13          ADDB      XAR4,#19              ; [CPU_] |1498| 
     564                      .dwpsn  file "D:/victor TI/Customer issue/Zero/4inOne/Code/sw/drivers/pwm/src/32b/f28x/f2802x/pwm.c",
     565 00000057 DD13          ADDB      XAR5,#19              ; [CPU_] |1495| 
     566 00000058 18C5          AND       *+XAR5[0],#0xfe3f     ; [CPU_] |1495| 
         00000059 FE3F 
     567                      .dwpsn  file "D:/victor TI/Customer issue/Zero/4inOne/Code/sw/drivers/pwm/src/32b/f28x/f2802x/pwm.c",
     568 0000005a 98C4          OR        *+XAR4[0],AL          ; [CPU_] |1498| 
     569 0000005b 761A   EDIS
     570 0000005c FF69          SPM       #0                    ; [CPU_] 
     571              $C$DW$48        .dwtag  DW_TAG_TI_branch
     572                      .dwattr $C$DW$48, DW_AT_low_pc(0x00)
     573                      .dwattr $C$DW$48, DW_AT_TI_return
     574 0000005d 0006          LRETR     ; [CPU_] 
     575                      ; return occurs ; [] 
     576                      .dwattr $C$DW$43, DW_AT_TI_end_file("D:/victor TI/Customer issue/Zero/4inOne/Code/sw/drivers/pwm/src/
     577                      .dwattr $C$DW$43, DW_AT_TI_end_line(0x5df)
     578                      .dwattr $C$DW$43, DW_AT_TI_end_column(0x01)
     579                      .dwendentry
     580                      .dwendtag $C$DW$43
     581              
     582 0000005e               .sect   ".text"
     583                      .global _PWM_setTripZoneDCEventSelect_DCAEVT2
     584              
     585              $C$DW$49        .dwtag  DW_TAG_subprogram, DW_AT_name("PWM_setTripZoneDCEventSelect_DCAEVT2")
     586                      .dwattr $C$DW$49, DW_AT_low_pc(_PWM_setTripZoneDCEventSelect_DCAEVT2)
     587                      .dwattr $C$DW$49, DW_AT_high_pc(0x00)
     588                      .dwattr $C$DW$49, DW_AT_TI_symbol_name("_PWM_setTripZoneDCEventSelect_DCAEVT2")
     589                      .dwattr $C$DW$49, DW_AT_external
     590                      .dwattr $C$DW$49, DW_AT_TI_begin_file("D:/victor TI/Customer issue/Zero/4inOne/Code/sw/drivers/pwm/sr
TMS320C2000 Assembler PC v6.2.3 Mon Aug 03 18:20:51 2015

Tools Copyright (c) 1996-2013 Texas Instruments Incorporated
C:\Users\a0220341\AppData\Local\Temp\3112010                         PAGE   12

     591                      .dwattr $C$DW$49, DW_AT_TI_begin_line(0x5bc)
     592                      .dwattr $C$DW$49, DW_AT_TI_begin_column(0x06)
     593                      .dwattr $C$DW$49, DW_AT_TI_max_frame_size(-2)
     594                      .dwpsn  file "D:/victor TI/Customer issue/Zero/4inOne/Code/sw/drivers/pwm/src/32b/f28x/f2802x/pwm.c",
     595              
     596                      .dwfde $C$DW$CIE, _PWM_setTripZoneDCEventSelect_DCAEVT2
     597              $C$DW$50        .dwtag  DW_TAG_formal_parameter, DW_AT_name("pwmHandle")
     598                      .dwattr $C$DW$50, DW_AT_TI_symbol_name("_pwmHandle")
     599                      .dwattr $C$DW$50, DW_AT_type(*$C$DW$T$33)
     600                      .dwattr $C$DW$50, DW_AT_location[DW_OP_reg12]
     601              $C$DW$51        .dwtag  DW_TAG_formal_parameter, DW_AT_name("tripZoneEvent")
     602                      .dwattr $C$DW$51, DW_AT_TI_symbol_name("_tripZoneEvent")
     603                      .dwattr $C$DW$51, DW_AT_type(*$C$DW$T$122)
     604                      .dwattr $C$DW$51, DW_AT_location[DW_OP_reg0]
     605              
     606              ;***************************************************************
     607              ;* FNAME: _PWM_setTripZoneDCEventSelect_DCAEVT2 FR SIZE:   0           *
     608              ;*                                                             *
     609              ;* FUNCTION ENVIRONMENT                                        *
     610              ;*                                                             *
     611              ;* FUNCTION PROPERTIES                                         *
     612              ;*                            0 Parameter,  0 Auto,  0 SOE     *
     613              ;***************************************************************
     614              
     615              _PWM_setTripZoneDCEventSelect_DCAEVT2:
     616              ;* AR4   assigned to _pwmHandle
     617              $C$DW$52        .dwtag  DW_TAG_variable, DW_AT_name("pwmHandle")
     618                      .dwattr $C$DW$52, DW_AT_TI_symbol_name("_pwmHandle")
     619                      .dwattr $C$DW$52, DW_AT_type(*$C$DW$T$127)
     620                      .dwattr $C$DW$52, DW_AT_location[DW_OP_reg12]
     621              ;* AL    assigned to _tripZoneEvent
     622              $C$DW$53        .dwtag  DW_TAG_variable, DW_AT_name("tripZoneEvent")
     623                      .dwattr $C$DW$53, DW_AT_TI_symbol_name("_tripZoneEvent")
     624                      .dwattr $C$DW$53, DW_AT_type(*$C$DW$T$122)
     625                      .dwattr $C$DW$53, DW_AT_location[DW_OP_reg0]
     626                      .dwcfi  cfa_offset, -2
     627                      .dwcfi  save_reg_to_mem, 26, 0
     628                      .dwcfi  save_reg_to_reg, 78, 26
     629 0000005e 7622   EALLOW
     630                      .dwpsn  file "D:/victor TI/Customer issue/Zero/4inOne/Code/sw/drivers/pwm/src/32b/f28x/f2802x/pwm.c",
     631 0000005f 83A4          MOVL      XAR5,XAR4             ; [CPU_] |1476| 
     632                      .dwpsn  file "D:/victor TI/Customer issue/Zero/4inOne/Code/sw/drivers/pwm/src/32b/f28x/f2802x/pwm.c",
     633 00000060 5603          MOV       ACC,AL << #3          ; [CPU_] |1479| 
         00000061 03A9 
     634 00000062 DC13          ADDB      XAR4,#19              ; [CPU_] |1479| 
     635                      .dwpsn  file "D:/victor TI/Customer issue/Zero/4inOne/Code/sw/drivers/pwm/src/32b/f28x/f2802x/pwm.c",
     636 00000063 DD13          ADDB      XAR5,#19              ; [CPU_] |1476| 
     637 00000064 18C5          AND       *+XAR5[0],#0xffc7     ; [CPU_] |1476| 
         00000065 FFC7 
     638                      .dwpsn  file "D:/victor TI/Customer issue/Zero/4inOne/Code/sw/drivers/pwm/src/32b/f28x/f2802x/pwm.c",
     639 00000066 98C4          OR        *+XAR4[0],AL          ; [CPU_] |1479| 
     640 00000067 761A   EDIS
     641 00000068 FF69          SPM       #0                    ; [CPU_] 
     642              $C$DW$54        .dwtag  DW_TAG_TI_branch
     643                      .dwattr $C$DW$54, DW_AT_low_pc(0x00)
TMS320C2000 Assembler PC v6.2.3 Mon Aug 03 18:20:51 2015

Tools Copyright (c) 1996-2013 Texas Instruments Incorporated
C:\Users\a0220341\AppData\Local\Temp\3112010                         PAGE   13

     644                      .dwattr $C$DW$54, DW_AT_TI_return
     645 00000069 0006          LRETR     ; [CPU_] 
     646                      ; return occurs ; [] 
     647                      .dwattr $C$DW$49, DW_AT_TI_end_file("D:/victor TI/Customer issue/Zero/4inOne/Code/sw/drivers/pwm/src/
     648                      .dwattr $C$DW$49, DW_AT_TI_end_line(0x5cc)
     649                      .dwattr $C$DW$49, DW_AT_TI_end_column(0x01)
     650                      .dwendentry
     651                      .dwendtag $C$DW$49
     652              
     653 0000006a               .sect   ".text"
     654                      .global _PWM_setTripZoneDCEventSelect_DCAEVT1
     655              
     656              $C$DW$55        .dwtag  DW_TAG_subprogram, DW_AT_name("PWM_setTripZoneDCEventSelect_DCAEVT1")
     657                      .dwattr $C$DW$55, DW_AT_low_pc(_PWM_setTripZoneDCEventSelect_DCAEVT1)
     658                      .dwattr $C$DW$55, DW_AT_high_pc(0x00)
     659                      .dwattr $C$DW$55, DW_AT_TI_symbol_name("_PWM_setTripZoneDCEventSelect_DCAEVT1")
     660                      .dwattr $C$DW$55, DW_AT_external
     661                      .dwattr $C$DW$55, DW_AT_TI_begin_file("D:/victor TI/Customer issue/Zero/4inOne/Code/sw/drivers/pwm/sr
     662                      .dwattr $C$DW$55, DW_AT_TI_begin_line(0x5a9)
     663                      .dwattr $C$DW$55, DW_AT_TI_begin_column(0x06)
     664                      .dwattr $C$DW$55, DW_AT_TI_max_frame_size(-2)
     665                      .dwpsn  file "D:/victor TI/Customer issue/Zero/4inOne/Code/sw/drivers/pwm/src/32b/f28x/f2802x/pwm.c",
     666              
     667                      .dwfde $C$DW$CIE, _PWM_setTripZoneDCEventSelect_DCAEVT1
     668              $C$DW$56        .dwtag  DW_TAG_formal_parameter, DW_AT_name("pwmHandle")
     669                      .dwattr $C$DW$56, DW_AT_TI_symbol_name("_pwmHandle")
     670                      .dwattr $C$DW$56, DW_AT_type(*$C$DW$T$33)
     671                      .dwattr $C$DW$56, DW_AT_location[DW_OP_reg12]
     672              $C$DW$57        .dwtag  DW_TAG_formal_parameter, DW_AT_name("tripZoneEvent")
     673                      .dwattr $C$DW$57, DW_AT_TI_symbol_name("_tripZoneEvent")
     674                      .dwattr $C$DW$57, DW_AT_type(*$C$DW$T$122)
     675                      .dwattr $C$DW$57, DW_AT_location[DW_OP_reg0]
     676              
     677              ;***************************************************************
     678              ;* FNAME: _PWM_setTripZoneDCEventSelect_DCAEVT1 FR SIZE:   0           *
     679              ;*                                                             *
     680              ;* FUNCTION ENVIRONMENT                                        *
     681              ;*                                                             *
     682              ;* FUNCTION PROPERTIES                                         *
     683              ;*                            0 Parameter,  0 Auto,  0 SOE     *
     684              ;***************************************************************
     685              
     686              _PWM_setTripZoneDCEventSelect_DCAEVT1:
     687              ;* AR4   assigned to _pwmHandle
     688              $C$DW$58        .dwtag  DW_TAG_variable, DW_AT_name("pwmHandle")
     689                      .dwattr $C$DW$58, DW_AT_TI_symbol_name("_pwmHandle")
     690                      .dwattr $C$DW$58, DW_AT_type(*$C$DW$T$127)
     691                      .dwattr $C$DW$58, DW_AT_location[DW_OP_reg12]
     692              ;* AL    assigned to _tripZoneEvent
     693              $C$DW$59        .dwtag  DW_TAG_variable, DW_AT_name("tripZoneEvent")
     694                      .dwattr $C$DW$59, DW_AT_TI_symbol_name("_tripZoneEvent")
     695                      .dwattr $C$DW$59, DW_AT_type(*$C$DW$T$122)
     696                      .dwattr $C$DW$59, DW_AT_location[DW_OP_reg0]
     697                      .dwcfi  cfa_offset, -2
     698                      .dwcfi  save_reg_to_mem, 26, 0
TMS320C2000 Assembler PC v6.2.3 Mon Aug 03 18:20:51 2015

Tools Copyright (c) 1996-2013 Texas Instruments Incorporated
C:\Users\a0220341\AppData\Local\Temp\3112010                         PAGE   14

     699                      .dwcfi  save_reg_to_reg, 78, 26
     700 0000006a 7622   EALLOW
     701                      .dwpsn  file "D:/victor TI/Customer issue/Zero/4inOne/Code/sw/drivers/pwm/src/32b/f28x/f2802x/pwm.c",
     702 0000006b 83A4          MOVL      XAR5,XAR4             ; [CPU_] |1457| 
     703                      .dwpsn  file "D:/victor TI/Customer issue/Zero/4inOne/Code/sw/drivers/pwm/src/32b/f28x/f2802x/pwm.c",
     704 0000006c DC13          ADDB      XAR4,#19              ; [CPU_] |1460| 
     705                      .dwpsn  file "D:/victor TI/Customer issue/Zero/4inOne/Code/sw/drivers/pwm/src/32b/f28x/f2802x/pwm.c",
     706 0000006d DD13          ADDB      XAR5,#19              ; [CPU_] |1457| 
     707 0000006e 18C5          AND       *+XAR5[0],#0xfff8     ; [CPU_] |1457| 
         0000006f FFF8 
     708                      .dwpsn  file "D:/victor TI/Customer issue/Zero/4inOne/Code/sw/drivers/pwm/src/32b/f28x/f2802x/pwm.c",
     709 00000070 98C4          OR        *+XAR4[0],AL          ; [CPU_] |1460| 
     710 00000071 761A   EDIS
     711 00000072 FF69          SPM       #0                    ; [CPU_] 
     712              $C$DW$60        .dwtag  DW_TAG_TI_branch
     713                      .dwattr $C$DW$60, DW_AT_low_pc(0x00)
     714                      .dwattr $C$DW$60, DW_AT_TI_return
     715 00000073 0006          LRETR     ; [CPU_] 
     716                      ; return occurs ; [] 
     717                      .dwattr $C$DW$55, DW_AT_TI_end_file("D:/victor TI/Customer issue/Zero/4inOne/Code/sw/drivers/pwm/src/
     718                      .dwattr $C$DW$55, DW_AT_TI_end_line(0x5b9)
     719                      .dwattr $C$DW$55, DW_AT_TI_end_column(0x01)
     720                      .dwendentry
     721                      .dwendtag $C$DW$55
     722              
     723 00000074               .sect   ".text"
     724                      .global _PWM_setSyncMode
     725              
     726              $C$DW$61        .dwtag  DW_TAG_subprogram, DW_AT_name("PWM_setSyncMode")
     727                      .dwattr $C$DW$61, DW_AT_low_pc(_PWM_setSyncMode)
     728                      .dwattr $C$DW$61, DW_AT_high_pc(0x00)
     729                      .dwattr $C$DW$61, DW_AT_TI_symbol_name("_PWM_setSyncMode")
     730                      .dwattr $C$DW$61, DW_AT_external
     731                      .dwattr $C$DW$61, DW_AT_TI_begin_file("D:/victor TI/Customer issue/Zero/4inOne/Code/sw/drivers/pwm/sr
     732                      .dwattr $C$DW$61, DW_AT_TI_begin_line(0x59b)
     733                      .dwattr $C$DW$61, DW_AT_TI_begin_column(0x06)
     734                      .dwattr $C$DW$61, DW_AT_TI_max_frame_size(-2)
     735                      .dwpsn  file "D:/victor TI/Customer issue/Zero/4inOne/Code/sw/drivers/pwm/src/32b/f28x/f2802x/pwm.c",
     736              
     737                      .dwfde $C$DW$CIE, _PWM_setSyncMode
     738              $C$DW$62        .dwtag  DW_TAG_formal_parameter, DW_AT_name("pwmHandle")
     739                      .dwattr $C$DW$62, DW_AT_TI_symbol_name("_pwmHandle")
     740                      .dwattr $C$DW$62, DW_AT_type(*$C$DW$T$33)
     741                      .dwattr $C$DW$62, DW_AT_location[DW_OP_reg12]
     742              $C$DW$63        .dwtag  DW_TAG_formal_parameter, DW_AT_name("syncMode")
     743                      .dwattr $C$DW$63, DW_AT_TI_symbol_name("_syncMode")
     744                      .dwattr $C$DW$63, DW_AT_type(*$C$DW$T$119)
     745                      .dwattr $C$DW$63, DW_AT_location[DW_OP_reg0]
     746              
     747              ;***************************************************************
     748              ;* FNAME: _PWM_setSyncMode              FR SIZE:   0           *
     749              ;*                                                             *
     750              ;* FUNCTION ENVIRONMENT                                        *
     751              ;*                                                             *
     752              ;* FUNCTION PROPERTIES                                         *
TMS320C2000 Assembler PC v6.2.3 Mon Aug 03 18:20:51 2015

Tools Copyright (c) 1996-2013 Texas Instruments Incorporated
C:\Users\a0220341\AppData\Local\Temp\3112010                         PAGE   15

     753              ;*                            0 Parameter,  0 Auto,  0 SOE     *
     754              ;***************************************************************
     755              
     756              _PWM_setSyncMode:
     757              ;* AR4   assigned to _pwmHandle
     758              $C$DW$64        .dwtag  DW_TAG_variable, DW_AT_name("pwmHandle")
     759                      .dwattr $C$DW$64, DW_AT_TI_symbol_name("_pwmHandle")
     760                      .dwattr $C$DW$64, DW_AT_type(*$C$DW$T$127)
     761                      .dwattr $C$DW$64, DW_AT_location[DW_OP_reg12]
     762              ;* AL    assigned to _syncMode
     763              $C$DW$65        .dwtag  DW_TAG_variable, DW_AT_name("syncMode")
     764                      .dwattr $C$DW$65, DW_AT_TI_symbol_name("_syncMode")
     765                      .dwattr $C$DW$65, DW_AT_type(*$C$DW$T$119)
     766                      .dwattr $C$DW$65, DW_AT_location[DW_OP_reg0]
     767                      .dwcfi  cfa_offset, -2
     768                      .dwcfi  save_reg_to_mem, 26, 0
     769                      .dwcfi  save_reg_to_reg, 78, 26
     770                      .dwpsn  file "D:/victor TI/Customer issue/Zero/4inOne/Code/sw/drivers/pwm/src/32b/f28x/f2802x/pwm.c",
     771 00000074 18C4          AND       *+XAR4[0],#0xffcf     ; [CPU_] |1441| 
         00000075 FFCF 
     772                      .dwpsn  file "D:/victor TI/Customer issue/Zero/4inOne/Code/sw/drivers/pwm/src/32b/f28x/f2802x/pwm.c",
     773 00000076 98C4          OR        *+XAR4[0],AL          ; [CPU_] |1444| 
     774              $C$DW$66        .dwtag  DW_TAG_TI_branch
     775                      .dwattr $C$DW$66, DW_AT_low_pc(0x00)
     776                      .dwattr $C$DW$66, DW_AT_TI_return
     777 00000077 0006          LRETR     ; [CPU_] 
     778                      ; return occurs ; [] 
     779                      .dwattr $C$DW$61, DW_AT_TI_end_file("D:/victor TI/Customer issue/Zero/4inOne/Code/sw/drivers/pwm/src/
     780                      .dwattr $C$DW$61, DW_AT_TI_end_line(0x5a7)
     781                      .dwattr $C$DW$61, DW_AT_TI_end_column(0x01)
     782                      .dwendentry
     783                      .dwendtag $C$DW$61
     784              
     785 00000078               .sect   ".text"
     786                      .global _PWM_setSwSync
     787              
     788              $C$DW$67        .dwtag  DW_TAG_subprogram, DW_AT_name("PWM_setSwSync")
     789                      .dwattr $C$DW$67, DW_AT_low_pc(_PWM_setSwSync)
     790                      .dwattr $C$DW$67, DW_AT_high_pc(0x00)
     791                      .dwattr $C$DW$67, DW_AT_TI_symbol_name("_PWM_setSwSync")
     792                      .dwattr $C$DW$67, DW_AT_external
     793                      .dwattr $C$DW$67, DW_AT_TI_begin_file("D:/victor TI/Customer issue/Zero/4inOne/Code/sw/drivers/pwm/sr
     794                      .dwattr $C$DW$67, DW_AT_TI_begin_line(0x58f)
     795                      .dwattr $C$DW$67, DW_AT_TI_begin_column(0x06)
     796                      .dwattr $C$DW$67, DW_AT_TI_max_frame_size(-2)
     797                      .dwpsn  file "D:/victor TI/Customer issue/Zero/4inOne/Code/sw/drivers/pwm/src/32b/f28x/f2802x/pwm.c",
     798              
     799                      .dwfde $C$DW$CIE, _PWM_setSwSync
     800              $C$DW$68        .dwtag  DW_TAG_formal_parameter, DW_AT_name("pwmHandle")
     801                      .dwattr $C$DW$68, DW_AT_TI_symbol_name("_pwmHandle")
     802                      .dwattr $C$DW$68, DW_AT_type(*$C$DW$T$33)
     803                      .dwattr $C$DW$68, DW_AT_location[DW_OP_reg12]
     804              
     805              ;***************************************************************
     806              ;* FNAME: _PWM_setSwSync                FR SIZE:   0           *
TMS320C2000 Assembler PC v6.2.3 Mon Aug 03 18:20:51 2015

Tools Copyright (c) 1996-2013 Texas Instruments Incorporated
C:\Users\a0220341\AppData\Local\Temp\3112010                         PAGE   16

     807              ;*                                                             *
     808              ;* FUNCTION ENVIRONMENT                                        *
     809              ;*                                                             *
     810              ;* FUNCTION PROPERTIES                                         *
     811              ;*                            0 Parameter,  0 Auto,  0 SOE     *
     812              ;***************************************************************
     813              
     814              _PWM_setSwSync:
     815              ;* AR4   assigned to _pwmHandle
     816              $C$DW$69        .dwtag  DW_TAG_variable, DW_AT_name("pwmHandle")
     817                      .dwattr $C$DW$69, DW_AT_TI_symbol_name("_pwmHandle")
     818                      .dwattr $C$DW$69, DW_AT_type(*$C$DW$T$127)
     819                      .dwattr $C$DW$69, DW_AT_location[DW_OP_reg12]
     820                      .dwcfi  cfa_offset, -2
     821                      .dwcfi  save_reg_to_mem, 26, 0
     822                      .dwcfi  save_reg_to_reg, 78, 26
     823                      .dwpsn  file "D:/victor TI/Customer issue/Zero/4inOne/Code/sw/drivers/pwm/src/32b/f28x/f2802x/pwm.c",
     824 00000078 1AC4          OR        *+XAR4[0],#0x0040     ; [CPU_] |1429| 
         00000079 0040 
     825              $C$DW$70        .dwtag  DW_TAG_TI_branch
     826                      .dwattr $C$DW$70, DW_AT_low_pc(0x00)
     827                      .dwattr $C$DW$70, DW_AT_TI_return
     828 0000007a 0006          LRETR     ; [CPU_] 
     829                      ; return occurs ; [] 
     830                      .dwattr $C$DW$67, DW_AT_TI_end_file("D:/victor TI/Customer issue/Zero/4inOne/Code/sw/drivers/pwm/src/
     831                      .dwattr $C$DW$67, DW_AT_TI_end_line(0x598)
     832                      .dwattr $C$DW$67, DW_AT_TI_end_column(0x01)
     833                      .dwendentry
     834                      .dwendtag $C$DW$67
     835              
     836 0000007b               .sect   ".text"
     837                      .global _PWM_setSocBPulseSrc
     838              
     839              $C$DW$71        .dwtag  DW_TAG_subprogram, DW_AT_name("PWM_setSocBPulseSrc")
     840                      .dwattr $C$DW$71, DW_AT_low_pc(_PWM_setSocBPulseSrc)
     841                      .dwattr $C$DW$71, DW_AT_high_pc(0x00)
     842                      .dwattr $C$DW$71, DW_AT_TI_symbol_name("_PWM_setSocBPulseSrc")
     843                      .dwattr $C$DW$71, DW_AT_external
     844                      .dwattr $C$DW$71, DW_AT_TI_begin_file("D:/victor TI/Customer issue/Zero/4inOne/Code/sw/drivers/pwm/sr
     845                      .dwattr $C$DW$71, DW_AT_TI_begin_line(0x562)
     846                      .dwattr $C$DW$71, DW_AT_TI_begin_column(0x06)
     847                      .dwattr $C$DW$71, DW_AT_TI_max_frame_size(-2)
     848                      .dwpsn  file "D:/victor TI/Customer issue/Zero/4inOne/Code/sw/drivers/pwm/src/32b/f28x/f2802x/pwm.c",
     849              
     850                      .dwfde $C$DW$CIE, _PWM_setSocBPulseSrc
     851              $C$DW$72        .dwtag  DW_TAG_formal_parameter, DW_AT_name("pwmHandle")
     852                      .dwattr $C$DW$72, DW_AT_TI_symbol_name("_pwmHandle")
     853                      .dwattr $C$DW$72, DW_AT_type(*$C$DW$T$33)
     854                      .dwattr $C$DW$72, DW_AT_location[DW_OP_reg12]
     855              $C$DW$73        .dwtag  DW_TAG_formal_parameter, DW_AT_name("pulseSrc")
     856                      .dwattr $C$DW$73, DW_AT_TI_symbol_name("_pulseSrc")
     857                      .dwattr $C$DW$73, DW_AT_type(*$C$DW$T$113)
     858                      .dwattr $C$DW$73, DW_AT_location[DW_OP_reg0]
     859              
     860              ;***************************************************************
TMS320C2000 Assembler PC v6.2.3 Mon Aug 03 18:20:51 2015

Tools Copyright (c) 1996-2013 Texas Instruments Incorporated
C:\Users\a0220341\AppData\Local\Temp\3112010                         PAGE   17

     861              ;* FNAME: _PWM_setSocBPulseSrc          FR SIZE:   0           *
     862              ;*                                                             *
     863              ;* FUNCTION ENVIRONMENT                                        *
     864              ;*                                                             *
     865              ;* FUNCTION PROPERTIES                                         *
     866              ;*                            0 Parameter,  0 Auto,  0 SOE     *
     867              ;***************************************************************
     868              
     869              _PWM_setSocBPulseSrc:
     870              ;* AR4   assigned to _pwmHandle
     871              $C$DW$74        .dwtag  DW_TAG_variable, DW_AT_name("pwmHandle")
     872                      .dwattr $C$DW$74, DW_AT_TI_symbol_name("_pwmHandle")
     873                      .dwattr $C$DW$74, DW_AT_type(*$C$DW$T$127)
     874                      .dwattr $C$DW$74, DW_AT_location[DW_OP_reg12]
     875              ;* AL    assigned to _pulseSrc
     876              $C$DW$75        .dwtag  DW_TAG_variable, DW_AT_name("pulseSrc")
     877                      .dwattr $C$DW$75, DW_AT_TI_symbol_name("_pulseSrc")
     878                      .dwattr $C$DW$75, DW_AT_type(*$C$DW$T$113)
     879                      .dwattr $C$DW$75, DW_AT_location[DW_OP_reg0]
     880                      .dwcfi  cfa_offset, -2
     881                      .dwcfi  save_reg_to_mem, 26, 0
     882                      .dwcfi  save_reg_to_reg, 78, 26
     883                      .dwpsn  file "D:/victor TI/Customer issue/Zero/4inOne/Code/sw/drivers/pwm/src/32b/f28x/f2802x/pwm.c",
     884 0000007b 83A4          MOVL      XAR5,XAR4             ; [CPU_] |1384| 
     885                      .dwpsn  file "D:/victor TI/Customer issue/Zero/4inOne/Code/sw/drivers/pwm/src/32b/f28x/f2802x/pwm.c",
     886 0000007c 5603          MOV       ACC,AL << #12         ; [CPU_] |1387| 
         0000007d 0CA9 
     887                      .dwpsn  file "D:/victor TI/Customer issue/Zero/4inOne/Code/sw/drivers/pwm/src/32b/f28x/f2802x/pwm.c",
     888 0000007e DD19          ADDB      XAR5,#25              ; [CPU_] |1384| 
     889 0000007f 18C5          AND       *+XAR5[0],#0x8fff     ; [CPU_] |1384| 
         00000080 8FFF 
     890                      .dwpsn  file "D:/victor TI/Customer issue/Zero/4inOne/Code/sw/drivers/pwm/src/32b/f28x/f2802x/pwm.c",
     891 00000081 DC19          ADDB      XAR4,#25              ; [CPU_] |1387| 
     892 00000082 98C4          OR        *+XAR4[0],AL          ; [CPU_] |1387| 
     893              $C$DW$76        .dwtag  DW_TAG_TI_branch
     894                      .dwattr $C$DW$76, DW_AT_low_pc(0x00)
     895                      .dwattr $C$DW$76, DW_AT_TI_return
     896 00000083 0006          LRETR     ; [CPU_] 
     897                      ; return occurs ; [] 
     898                      .dwattr $C$DW$71, DW_AT_TI_end_file("D:/victor TI/Customer issue/Zero/4inOne/Code/sw/drivers/pwm/src/
     899                      .dwattr $C$DW$71, DW_AT_TI_end_line(0x56e)
     900                      .dwattr $C$DW$71, DW_AT_TI_end_column(0x01)
     901                      .dwendentry
     902                      .dwendtag $C$DW$71
     903              
     904 00000084               .sect   ".text"
     905                      .global _PWM_setSocBPeriod
     906              
     907              $C$DW$77        .dwtag  DW_TAG_subprogram, DW_AT_name("PWM_setSocBPeriod")
     908                      .dwattr $C$DW$77, DW_AT_low_pc(_PWM_setSocBPeriod)
     909                      .dwattr $C$DW$77, DW_AT_high_pc(0x00)
     910                      .dwattr $C$DW$77, DW_AT_TI_symbol_name("_PWM_setSocBPeriod")
     911                      .dwattr $C$DW$77, DW_AT_external
     912                      .dwattr $C$DW$77, DW_AT_TI_begin_file("D:/victor TI/Customer issue/Zero/4inOne/Code/sw/drivers/pwm/sr
     913                      .dwattr $C$DW$77, DW_AT_TI_begin_line(0x553)
TMS320C2000 Assembler PC v6.2.3 Mon Aug 03 18:20:51 2015

Tools Copyright (c) 1996-2013 Texas Instruments Incorporated
C:\Users\a0220341\AppData\Local\Temp\3112010                         PAGE   18

     914                      .dwattr $C$DW$77, DW_AT_TI_begin_column(0x06)
     915                      .dwattr $C$DW$77, DW_AT_TI_max_frame_size(-2)
     916                      .dwpsn  file "D:/victor TI/Customer issue/Zero/4inOne/Code/sw/drivers/pwm/src/32b/f28x/f2802x/pwm.c",
     917              
     918                      .dwfde $C$DW$CIE, _PWM_setSocBPeriod
     919              $C$DW$78        .dwtag  DW_TAG_formal_parameter, DW_AT_name("pwmHandle")
     920                      .dwattr $C$DW$78, DW_AT_TI_symbol_name("_pwmHandle")
     921                      .dwattr $C$DW$78, DW_AT_type(*$C$DW$T$33)
     922                      .dwattr $C$DW$78, DW_AT_location[DW_OP_reg12]
     923              $C$DW$79        .dwtag  DW_TAG_formal_parameter, DW_AT_name("intPeriod")
     924                      .dwattr $C$DW$79, DW_AT_TI_symbol_name("_intPeriod")
     925                      .dwattr $C$DW$79, DW_AT_type(*$C$DW$T$110)
     926                      .dwattr $C$DW$79, DW_AT_location[DW_OP_reg0]
     927              
     928              ;***************************************************************
     929              ;* FNAME: _PWM_setSocBPeriod            FR SIZE:   0           *
     930              ;*                                                             *
     931              ;* FUNCTION ENVIRONMENT                                        *
     932              ;*                                                             *
     933              ;* FUNCTION PROPERTIES                                         *
     934              ;*                            0 Parameter,  0 Auto,  0 SOE     *
     935              ;***************************************************************
     936              
     937              _PWM_setSocBPeriod:
     938              ;* AR4   assigned to _pwmHandle
     939              $C$DW$80        .dwtag  DW_TAG_variable, DW_AT_name("pwmHandle")
     940                      .dwattr $C$DW$80, DW_AT_TI_symbol_name("_pwmHandle")
     941                      .dwattr $C$DW$80, DW_AT_type(*$C$DW$T$127)
     942                      .dwattr $C$DW$80, DW_AT_location[DW_OP_reg12]
     943              ;* AL    assigned to _intPeriod
     944              $C$DW$81        .dwtag  DW_TAG_variable, DW_AT_name("intPeriod")
     945                      .dwattr $C$DW$81, DW_AT_TI_symbol_name("_intPeriod")
     946                      .dwattr $C$DW$81, DW_AT_type(*$C$DW$T$110)
     947                      .dwattr $C$DW$81, DW_AT_location[DW_OP_reg0]
     948                      .dwcfi  cfa_offset, -2
     949                      .dwcfi  save_reg_to_mem, 26, 0
     950                      .dwcfi  save_reg_to_reg, 78, 26
     951                      .dwpsn  file "D:/victor TI/Customer issue/Zero/4inOne/Code/sw/drivers/pwm/src/32b/f28x/f2802x/pwm.c",
     952 00000084 83A4          MOVL      XAR5,XAR4             ; [CPU_] |1369| 
     953                      .dwpsn  file "D:/victor TI/Customer issue/Zero/4inOne/Code/sw/drivers/pwm/src/32b/f28x/f2802x/pwm.c",
     954 00000085 5603          MOV       ACC,AL << #12         ; [CPU_] |1372| 
         00000086 0CA9 
     955                      .dwpsn  file "D:/victor TI/Customer issue/Zero/4inOne/Code/sw/drivers/pwm/src/32b/f28x/f2802x/pwm.c",
     956 00000087 DD1A          ADDB      XAR5,#26              ; [CPU_] |1369| 
     957 00000088 18C5          AND       *+XAR5[0],#0xcfff     ; [CPU_] |1369| 
         00000089 CFFF 
     958                      .dwpsn  file "D:/victor TI/Customer issue/Zero/4inOne/Code/sw/drivers/pwm/src/32b/f28x/f2802x/pwm.c",
     959 0000008a DC1A          ADDB      XAR4,#26              ; [CPU_] |1372| 
     960 0000008b 98C4          OR        *+XAR4[0],AL          ; [CPU_] |1372| 
     961              $C$DW$82        .dwtag  DW_TAG_TI_branch
     962                      .dwattr $C$DW$82, DW_AT_low_pc(0x00)
     963                      .dwattr $C$DW$82, DW_AT_TI_return
     964 0000008c 0006          LRETR     ; [CPU_] 
     965                      ; return occurs ; [] 
     966                      .dwattr $C$DW$77, DW_AT_TI_end_file("D:/victor TI/Customer issue/Zero/4inOne/Code/sw/drivers/pwm/src/
TMS320C2000 Assembler PC v6.2.3 Mon Aug 03 18:20:51 2015

Tools Copyright (c) 1996-2013 Texas Instruments Incorporated
C:\Users\a0220341\AppData\Local\Temp\3112010                         PAGE   19

     967                      .dwattr $C$DW$77, DW_AT_TI_end_line(0x55f)
     968                      .dwattr $C$DW$77, DW_AT_TI_end_column(0x01)
     969                      .dwendentry
     970                      .dwendtag $C$DW$77
     971              
     972 0000008d               .sect   ".text"
     973                      .global _PWM_setSocAPulseSrc
     974              
     975              $C$DW$83        .dwtag  DW_TAG_subprogram, DW_AT_name("PWM_setSocAPulseSrc")
     976                      .dwattr $C$DW$83, DW_AT_low_pc(_PWM_setSocAPulseSrc)
     977                      .dwattr $C$DW$83, DW_AT_high_pc(0x00)
     978                      .dwattr $C$DW$83, DW_AT_TI_symbol_name("_PWM_setSocAPulseSrc")
     979                      .dwattr $C$DW$83, DW_AT_external
     980                      .dwattr $C$DW$83, DW_AT_TI_begin_file("D:/victor TI/Customer issue/Zero/4inOne/Code/sw/drivers/pwm/sr
     981                      .dwattr $C$DW$83, DW_AT_TI_begin_line(0x544)
     982                      .dwattr $C$DW$83, DW_AT_TI_begin_column(0x06)
     983                      .dwattr $C$DW$83, DW_AT_TI_max_frame_size(-2)
     984                      .dwpsn  file "D:/victor TI/Customer issue/Zero/4inOne/Code/sw/drivers/pwm/src/32b/f28x/f2802x/pwm.c",
     985              
     986                      .dwfde $C$DW$CIE, _PWM_setSocAPulseSrc
     987              $C$DW$84        .dwtag  DW_TAG_formal_parameter, DW_AT_name("pwmHandle")
     988                      .dwattr $C$DW$84, DW_AT_TI_symbol_name("_pwmHandle")
     989                      .dwattr $C$DW$84, DW_AT_type(*$C$DW$T$33)
     990                      .dwattr $C$DW$84, DW_AT_location[DW_OP_reg12]
     991              $C$DW$85        .dwtag  DW_TAG_formal_parameter, DW_AT_name("pulseSrc")
     992                      .dwattr $C$DW$85, DW_AT_TI_symbol_name("_pulseSrc")
     993                      .dwattr $C$DW$85, DW_AT_type(*$C$DW$T$113)
     994                      .dwattr $C$DW$85, DW_AT_location[DW_OP_reg0]
     995              
     996              ;***************************************************************
     997              ;* FNAME: _PWM_setSocAPulseSrc          FR SIZE:   0           *
     998              ;*                                                             *
     999              ;* FUNCTION ENVIRONMENT                                        *
    1000              ;*                                                             *
    1001              ;* FUNCTION PROPERTIES                                         *
    1002              ;*                            0 Parameter,  0 Auto,  0 SOE     *
    1003              ;***************************************************************
    1004              
    1005              _PWM_setSocAPulseSrc:
    1006              ;* AR4   assigned to _pwmHandle
    1007              $C$DW$86        .dwtag  DW_TAG_variable, DW_AT_name("pwmHandle")
    1008                      .dwattr $C$DW$86, DW_AT_TI_symbol_name("_pwmHandle")
    1009                      .dwattr $C$DW$86, DW_AT_type(*$C$DW$T$127)
    1010                      .dwattr $C$DW$86, DW_AT_location[DW_OP_reg12]
    1011              ;* AL    assigned to _pulseSrc
    1012              $C$DW$87        .dwtag  DW_TAG_variable, DW_AT_name("pulseSrc")
    1013                      .dwattr $C$DW$87, DW_AT_TI_symbol_name("_pulseSrc")
    1014                      .dwattr $C$DW$87, DW_AT_type(*$C$DW$T$113)
    1015                      .dwattr $C$DW$87, DW_AT_location[DW_OP_reg0]
    1016                      .dwcfi  cfa_offset, -2
    1017                      .dwcfi  save_reg_to_mem, 26, 0
    1018                      .dwcfi  save_reg_to_reg, 78, 26
    1019                      .dwpsn  file "D:/victor TI/Customer issue/Zero/4inOne/Code/sw/drivers/pwm/src/32b/f28x/f2802x/pwm.c",
    1020 0000008d 83A4          MOVL      XAR5,XAR4             ; [CPU_] |1354| 
    1021                      .dwpsn  file "D:/victor TI/Customer issue/Zero/4inOne/Code/sw/drivers/pwm/src/32b/f28x/f2802x/pwm.c",
TMS320C2000 Assembler PC v6.2.3 Mon Aug 03 18:20:51 2015

Tools Copyright (c) 1996-2013 Texas Instruments Incorporated
C:\Users\a0220341\AppData\Local\Temp\3112010                         PAGE   20

    1022 0000008e 5603          MOV       ACC,AL << #8          ; [CPU_] |1357| 
         0000008f 08A9 
    1023                      .dwpsn  file "D:/victor TI/Customer issue/Zero/4inOne/Code/sw/drivers/pwm/src/32b/f28x/f2802x/pwm.c",
    1024 00000090 DD19          ADDB      XAR5,#25              ; [CPU_] |1354| 
    1025 00000091 18C5          AND       *+XAR5[0],#0xf8ff     ; [CPU_] |1354| 
         00000092 F8FF 
    1026                      .dwpsn  file "D:/victor TI/Customer issue/Zero/4inOne/Code/sw/drivers/pwm/src/32b/f28x/f2802x/pwm.c",
    1027 00000093 DC19          ADDB      XAR4,#25              ; [CPU_] |1357| 
    1028 00000094 98C4          OR        *+XAR4[0],AL          ; [CPU_] |1357| 
    1029              $C$DW$88        .dwtag  DW_TAG_TI_branch
    1030                      .dwattr $C$DW$88, DW_AT_low_pc(0x00)
    1031                      .dwattr $C$DW$88, DW_AT_TI_return
    1032 00000095 0006          LRETR     ; [CPU_] 
    1033                      ; return occurs ; [] 
    1034                      .dwattr $C$DW$83, DW_AT_TI_end_file("D:/victor TI/Customer issue/Zero/4inOne/Code/sw/drivers/pwm/src/
    1035                      .dwattr $C$DW$83, DW_AT_TI_end_line(0x550)
    1036                      .dwattr $C$DW$83, DW_AT_TI_end_column(0x01)
    1037                      .dwendentry
    1038                      .dwendtag $C$DW$83
    1039              
    1040 00000096               .sect   ".text"
    1041                      .global _PWM_setSocAPeriod
    1042              
    1043              $C$DW$89        .dwtag  DW_TAG_subprogram, DW_AT_name("PWM_setSocAPeriod")
    1044                      .dwattr $C$DW$89, DW_AT_low_pc(_PWM_setSocAPeriod)
    1045                      .dwattr $C$DW$89, DW_AT_high_pc(0x00)
    1046                      .dwattr $C$DW$89, DW_AT_TI_symbol_name("_PWM_setSocAPeriod")
    1047                      .dwattr $C$DW$89, DW_AT_external
    1048                      .dwattr $C$DW$89, DW_AT_TI_begin_file("D:/victor TI/Customer issue/Zero/4inOne/Code/sw/drivers/pwm/sr
    1049                      .dwattr $C$DW$89, DW_AT_TI_begin_line(0x535)
    1050                      .dwattr $C$DW$89, DW_AT_TI_begin_column(0x06)
    1051                      .dwattr $C$DW$89, DW_AT_TI_max_frame_size(-2)
    1052                      .dwpsn  file "D:/victor TI/Customer issue/Zero/4inOne/Code/sw/drivers/pwm/src/32b/f28x/f2802x/pwm.c",
    1053              
    1054                      .dwfde $C$DW$CIE, _PWM_setSocAPeriod
    1055              $C$DW$90        .dwtag  DW_TAG_formal_parameter, DW_AT_name("pwmHandle")
    1056                      .dwattr $C$DW$90, DW_AT_TI_symbol_name("_pwmHandle")
    1057                      .dwattr $C$DW$90, DW_AT_type(*$C$DW$T$33)
    1058                      .dwattr $C$DW$90, DW_AT_location[DW_OP_reg12]
    1059              $C$DW$91        .dwtag  DW_TAG_formal_parameter, DW_AT_name("intPeriod")
    1060                      .dwattr $C$DW$91, DW_AT_TI_symbol_name("_intPeriod")
    1061                      .dwattr $C$DW$91, DW_AT_type(*$C$DW$T$110)
    1062                      .dwattr $C$DW$91, DW_AT_location[DW_OP_reg0]
    1063              
    1064              ;***************************************************************
    1065              ;* FNAME: _PWM_setSocAPeriod            FR SIZE:   0           *
    1066              ;*                                                             *
    1067              ;* FUNCTION ENVIRONMENT                                        *
    1068              ;*                                                             *
    1069              ;* FUNCTION PROPERTIES                                         *
    1070              ;*                            0 Parameter,  0 Auto,  0 SOE     *
    1071              ;***************************************************************
    1072              
    1073              _PWM_setSocAPeriod:
    1074              ;* AR4   assigned to _pwmHandle
TMS320C2000 Assembler PC v6.2.3 Mon Aug 03 18:20:51 2015

Tools Copyright (c) 1996-2013 Texas Instruments Incorporated
C:\Users\a0220341\AppData\Local\Temp\3112010                         PAGE   21

    1075              $C$DW$92        .dwtag  DW_TAG_variable, DW_AT_name("pwmHandle")
    1076                      .dwattr $C$DW$92, DW_AT_TI_symbol_name("_pwmHandle")
    1077                      .dwattr $C$DW$92, DW_AT_type(*$C$DW$T$127)
    1078                      .dwattr $C$DW$92, DW_AT_location[DW_OP_reg12]
    1079              ;* AL    assigned to _intPeriod
    1080              $C$DW$93        .dwtag  DW_TAG_variable, DW_AT_name("intPeriod")
    1081                      .dwattr $C$DW$93, DW_AT_TI_symbol_name("_intPeriod")
    1082                      .dwattr $C$DW$93, DW_AT_type(*$C$DW$T$110)
    1083                      .dwattr $C$DW$93, DW_AT_location[DW_OP_reg0]
    1084                      .dwcfi  cfa_offset, -2
    1085                      .dwcfi  save_reg_to_mem, 26, 0
    1086                      .dwcfi  save_reg_to_reg, 78, 26
    1087                      .dwpsn  file "D:/victor TI/Customer issue/Zero/4inOne/Code/sw/drivers/pwm/src/32b/f28x/f2802x/pwm.c",
    1088 00000096 83A4          MOVL      XAR5,XAR4             ; [CPU_] |1339| 
    1089                      .dwpsn  file "D:/victor TI/Customer issue/Zero/4inOne/Code/sw/drivers/pwm/src/32b/f28x/f2802x/pwm.c",
    1090 00000097 5603          MOV       ACC,AL << #8          ; [CPU_] |1342| 
         00000098 08A9 
    1091                      .dwpsn  file "D:/victor TI/Customer issue/Zero/4inOne/Code/sw/drivers/pwm/src/32b/f28x/f2802x/pwm.c",
    1092 00000099 DD1A          ADDB      XAR5,#26              ; [CPU_] |1339| 
    1093 0000009a 18C5          AND       *+XAR5[0],#0xfcff     ; [CPU_] |1339| 
         0000009b FCFF 
    1094                      .dwpsn  file "D:/victor TI/Customer issue/Zero/4inOne/Code/sw/drivers/pwm/src/32b/f28x/f2802x/pwm.c",
    1095 0000009c DC1A          ADDB      XAR4,#26              ; [CPU_] |1342| 
    1096 0000009d 98C4          OR        *+XAR4[0],AL          ; [CPU_] |1342| 
    1097              $C$DW$94        .dwtag  DW_TAG_TI_branch
    1098                      .dwattr $C$DW$94, DW_AT_low_pc(0x00)
    1099                      .dwattr $C$DW$94, DW_AT_TI_return
    1100 0000009e 0006          LRETR     ; [CPU_] 
    1101                      ; return occurs ; [] 
    1102                      .dwattr $C$DW$89, DW_AT_TI_end_file("D:/victor TI/Customer issue/Zero/4inOne/Code/sw/drivers/pwm/src/
    1103                      .dwattr $C$DW$89, DW_AT_TI_end_line(0x541)
    1104                      .dwattr $C$DW$89, DW_AT_TI_end_column(0x01)
    1105                      .dwendentry
    1106                      .dwendtag $C$DW$89
    1107              
    1108 0000009f               .sect   ".text"
    1109                      .global _PWM_setShadowMode_CmpB
    1110              
    1111              $C$DW$95        .dwtag  DW_TAG_subprogram, DW_AT_name("PWM_setShadowMode_CmpB")
    1112                      .dwattr $C$DW$95, DW_AT_low_pc(_PWM_setShadowMode_CmpB)
    1113                      .dwattr $C$DW$95, DW_AT_high_pc(0x00)
    1114                      .dwattr $C$DW$95, DW_AT_TI_symbol_name("_PWM_setShadowMode_CmpB")
    1115                      .dwattr $C$DW$95, DW_AT_external
    1116                      .dwattr $C$DW$95, DW_AT_TI_begin_file("D:/victor TI/Customer issue/Zero/4inOne/Code/sw/drivers/pwm/sr
    1117                      .dwattr $C$DW$95, DW_AT_TI_begin_line(0x580)
    1118                      .dwattr $C$DW$95, DW_AT_TI_begin_column(0x06)
    1119                      .dwattr $C$DW$95, DW_AT_TI_max_frame_size(-2)
    1120                      .dwpsn  file "D:/victor TI/Customer issue/Zero/4inOne/Code/sw/drivers/pwm/src/32b/f28x/f2802x/pwm.c",
    1121              
    1122                      .dwfde $C$DW$CIE, _PWM_setShadowMode_CmpB
    1123              $C$DW$96        .dwtag  DW_TAG_formal_parameter, DW_AT_name("pwmHandle")
    1124                      .dwattr $C$DW$96, DW_AT_TI_symbol_name("_pwmHandle")
    1125                      .dwattr $C$DW$96, DW_AT_type(*$C$DW$T$33)
    1126                      .dwattr $C$DW$96, DW_AT_location[DW_OP_reg12]
    1127              $C$DW$97        .dwtag  DW_TAG_formal_parameter, DW_AT_name("shadowMode")
TMS320C2000 Assembler PC v6.2.3 Mon Aug 03 18:20:51 2015

Tools Copyright (c) 1996-2013 Texas Instruments Incorporated
C:\Users\a0220341\AppData\Local\Temp\3112010                         PAGE   22

    1128                      .dwattr $C$DW$97, DW_AT_TI_symbol_name("_shadowMode")
    1129                      .dwattr $C$DW$97, DW_AT_type(*$C$DW$T$116)
    1130                      .dwattr $C$DW$97, DW_AT_location[DW_OP_reg0]
    1131              
    1132              ;***************************************************************
    1133              ;* FNAME: _PWM_setShadowMode_CmpB       FR SIZE:   0           *
    1134              ;*                                                             *
    1135              ;* FUNCTION ENVIRONMENT                                        *
    1136              ;*                                                             *
    1137              ;* FUNCTION PROPERTIES                                         *
    1138              ;*                            0 Parameter,  0 Auto,  0 SOE     *
    1139              ;***************************************************************
    1140              
    1141              _PWM_setShadowMode_CmpB:
    1142              ;* AR4   assigned to _pwmHandle
    1143              $C$DW$98        .dwtag  DW_TAG_variable, DW_AT_name("pwmHandle")
    1144                      .dwattr $C$DW$98, DW_AT_TI_symbol_name("_pwmHandle")
    1145                      .dwattr $C$DW$98, DW_AT_type(*$C$DW$T$127)
    1146                      .dwattr $C$DW$98, DW_AT_location[DW_OP_reg12]
    1147              ;* AL    assigned to _shadowMode
    1148              $C$DW$99        .dwtag  DW_TAG_variable, DW_AT_name("shadowMode")
    1149                      .dwattr $C$DW$99, DW_AT_TI_symbol_name("_shadowMode")
    1150                      .dwattr $C$DW$99, DW_AT_type(*$C$DW$T$116)
    1151                      .dwattr $C$DW$99, DW_AT_location[DW_OP_reg0]
    1152                      .dwcfi  cfa_offset, -2
    1153                      .dwcfi  save_reg_to_mem, 26, 0
    1154                      .dwcfi  save_reg_to_reg, 78, 26
    1155                      .dwpsn  file "D:/victor TI/Customer issue/Zero/4inOne/Code/sw/drivers/pwm/src/32b/f28x/f2802x/pwm.c",
    1156 0000009f 18FC          AND       *+XAR4[7],#0xffbf     ; [CPU_] |1414| 
         000000a0 FFBF 
    1157                      .dwpsn  file "D:/victor TI/Customer issue/Zero/4inOne/Code/sw/drivers/pwm/src/32b/f28x/f2802x/pwm.c",
    1158 000000a1 5603          MOV       ACC,AL << #6          ; [CPU_] |1417| 
         000000a2 06A9 
    1159 000000a3 98FC          OR        *+XAR4[7],AL          ; [CPU_] |1417| 
    1160              $C$DW$100       .dwtag  DW_TAG_TI_branch
    1161                      .dwattr $C$DW$100, DW_AT_low_pc(0x00)
    1162                      .dwattr $C$DW$100, DW_AT_TI_return
    1163 000000a4 0006          LRETR     ; [CPU_] 
    1164                      ; return occurs ; [] 
    1165                      .dwattr $C$DW$95, DW_AT_TI_end_file("D:/victor TI/Customer issue/Zero/4inOne/Code/sw/drivers/pwm/src/
    1166                      .dwattr $C$DW$95, DW_AT_TI_end_line(0x58c)
    1167                      .dwattr $C$DW$95, DW_AT_TI_end_column(0x01)
    1168                      .dwendentry
    1169                      .dwendtag $C$DW$95
    1170              
    1171 000000a5               .sect   ".text"
    1172                      .global _PWM_setShadowMode_CmpA
    1173              
    1174              $C$DW$101       .dwtag  DW_TAG_subprogram, DW_AT_name("PWM_setShadowMode_CmpA")
    1175                      .dwattr $C$DW$101, DW_AT_low_pc(_PWM_setShadowMode_CmpA)
    1176                      .dwattr $C$DW$101, DW_AT_high_pc(0x00)
    1177                      .dwattr $C$DW$101, DW_AT_TI_symbol_name("_PWM_setShadowMode_CmpA")
    1178                      .dwattr $C$DW$101, DW_AT_external
    1179                      .dwattr $C$DW$101, DW_AT_TI_begin_file("D:/victor TI/Customer issue/Zero/4inOne/Code/sw/drivers/pwm/s
    1180                      .dwattr $C$DW$101, DW_AT_TI_begin_line(0x571)
TMS320C2000 Assembler PC v6.2.3 Mon Aug 03 18:20:51 2015

Tools Copyright (c) 1996-2013 Texas Instruments Incorporated
C:\Users\a0220341\AppData\Local\Temp\3112010                         PAGE   23

    1181                      .dwattr $C$DW$101, DW_AT_TI_begin_column(0x06)
    1182                      .dwattr $C$DW$101, DW_AT_TI_max_frame_size(-2)
    1183                      .dwpsn  file "D:/victor TI/Customer issue/Zero/4inOne/Code/sw/drivers/pwm/src/32b/f28x/f2802x/pwm.c",
    1184              
    1185                      .dwfde $C$DW$CIE, _PWM_setShadowMode_CmpA
    1186              $C$DW$102       .dwtag  DW_TAG_formal_parameter, DW_AT_name("pwmHandle")
    1187                      .dwattr $C$DW$102, DW_AT_TI_symbol_name("_pwmHandle")
    1188                      .dwattr $C$DW$102, DW_AT_type(*$C$DW$T$33)
    1189                      .dwattr $C$DW$102, DW_AT_location[DW_OP_reg12]
    1190              $C$DW$103       .dwtag  DW_TAG_formal_parameter, DW_AT_name("shadowMode")
    1191                      .dwattr $C$DW$103, DW_AT_TI_symbol_name("_shadowMode")
    1192                      .dwattr $C$DW$103, DW_AT_type(*$C$DW$T$116)
    1193                      .dwattr $C$DW$103, DW_AT_location[DW_OP_reg0]
    1194              
    1195              ;***************************************************************
    1196              ;* FNAME: _PWM_setShadowMode_CmpA       FR SIZE:   0           *
    1197              ;*                                                             *
    1198              ;* FUNCTION ENVIRONMENT                                        *
    1199              ;*                                                             *
    1200              ;* FUNCTION PROPERTIES                                         *
    1201              ;*                            0 Parameter,  0 Auto,  0 SOE     *
    1202              ;***************************************************************
    1203              
    1204              _PWM_setShadowMode_CmpA:
    1205              ;* AR4   assigned to _pwmHandle
    1206              $C$DW$104       .dwtag  DW_TAG_variable, DW_AT_name("pwmHandle")
    1207                      .dwattr $C$DW$104, DW_AT_TI_symbol_name("_pwmHandle")
    1208                      .dwattr $C$DW$104, DW_AT_type(*$C$DW$T$127)
    1209                      .dwattr $C$DW$104, DW_AT_location[DW_OP_reg12]
    1210              ;* AL    assigned to _shadowMode
    1211              $C$DW$105       .dwtag  DW_TAG_variable, DW_AT_name("shadowMode")
    1212                      .dwattr $C$DW$105, DW_AT_TI_symbol_name("_shadowMode")
    1213                      .dwattr $C$DW$105, DW_AT_type(*$C$DW$T$116)
    1214                      .dwattr $C$DW$105, DW_AT_location[DW_OP_reg0]
    1215                      .dwcfi  cfa_offset, -2
    1216                      .dwcfi  save_reg_to_mem, 26, 0
    1217                      .dwcfi  save_reg_to_reg, 78, 26
    1218                      .dwpsn  file "D:/victor TI/Customer issue/Zero/4inOne/Code/sw/drivers/pwm/src/32b/f28x/f2802x/pwm.c",
    1219 000000a5 18FC          AND       *+XAR4[7],#0xffef     ; [CPU_] |1399| 
         000000a6 FFEF 
    1220                      .dwpsn  file "D:/victor TI/Customer issue/Zero/4inOne/Code/sw/drivers/pwm/src/32b/f28x/f2802x/pwm.c",
    1221 000000a7 5603          MOV       ACC,AL << #4          ; [CPU_] |1402| 
         000000a8 04A9 
    1222 000000a9 98FC          OR        *+XAR4[7],AL          ; [CPU_] |1402| 
    1223              $C$DW$106       .dwtag  DW_TAG_TI_branch
    1224                      .dwattr $C$DW$106, DW_AT_low_pc(0x00)
    1225                      .dwattr $C$DW$106, DW_AT_TI_return
    1226 000000aa 0006          LRETR     ; [CPU_] 
    1227                      ; return occurs ; [] 
    1228                      .dwattr $C$DW$101, DW_AT_TI_end_file("D:/victor TI/Customer issue/Zero/4inOne/Code/sw/drivers/pwm/src
    1229                      .dwattr $C$DW$101, DW_AT_TI_end_line(0x57d)
    1230                      .dwattr $C$DW$101, DW_AT_TI_end_column(0x01)
    1231                      .dwendentry
    1232                      .dwendtag $C$DW$101
    1233              
TMS320C2000 Assembler PC v6.2.3 Mon Aug 03 18:20:51 2015

Tools Copyright (c) 1996-2013 Texas Instruments Incorporated
C:\Users\a0220341\AppData\Local\Temp\3112010                         PAGE   24

    1234 000000ab               .sect   ".text"
    1235                      .global _PWM_setRunMode
    1236              
    1237              $C$DW$107       .dwtag  DW_TAG_subprogram, DW_AT_name("PWM_setRunMode")
    1238                      .dwattr $C$DW$107, DW_AT_low_pc(_PWM_setRunMode)
    1239                      .dwattr $C$DW$107, DW_AT_high_pc(0x00)
    1240                      .dwattr $C$DW$107, DW_AT_TI_symbol_name("_PWM_setRunMode")
    1241                      .dwattr $C$DW$107, DW_AT_external
    1242                      .dwattr $C$DW$107, DW_AT_TI_begin_file("D:/victor TI/Customer issue/Zero/4inOne/Code/sw/drivers/pwm/s
    1243                      .dwattr $C$DW$107, DW_AT_TI_begin_line(0x526)
    1244                      .dwattr $C$DW$107, DW_AT_TI_begin_column(0x06)
    1245                      .dwattr $C$DW$107, DW_AT_TI_max_frame_size(-2)
    1246                      .dwpsn  file "D:/victor TI/Customer issue/Zero/4inOne/Code/sw/drivers/pwm/src/32b/f28x/f2802x/pwm.c",
    1247              
    1248                      .dwfde $C$DW$CIE, _PWM_setRunMode
    1249              $C$DW$108       .dwtag  DW_TAG_formal_parameter, DW_AT_name("pwmHandle")
    1250                      .dwattr $C$DW$108, DW_AT_TI_symbol_name("_pwmHandle")
    1251                      .dwattr $C$DW$108, DW_AT_type(*$C$DW$T$33)
    1252                      .dwattr $C$DW$108, DW_AT_location[DW_OP_reg12]
    1253              $C$DW$109       .dwtag  DW_TAG_formal_parameter, DW_AT_name("runMode")
    1254                      .dwattr $C$DW$109, DW_AT_TI_symbol_name("_runMode")
    1255                      .dwattr $C$DW$109, DW_AT_type(*$C$DW$T$107)
    1256                      .dwattr $C$DW$109, DW_AT_location[DW_OP_reg0]
    1257              
    1258              ;***************************************************************
    1259              ;* FNAME: _PWM_setRunMode               FR SIZE:   0           *
    1260              ;*                                                             *
    1261              ;* FUNCTION ENVIRONMENT                                        *
    1262              ;*                                                             *
    1263              ;* FUNCTION PROPERTIES                                         *
    1264              ;*                            0 Parameter,  0 Auto,  0 SOE     *
    1265              ;***************************************************************
    1266              
    1267              _PWM_setRunMode:
    1268              ;* AR4   assigned to _pwmHandle
    1269              $C$DW$110       .dwtag  DW_TAG_variable, DW_AT_name("pwmHandle")
    1270                      .dwattr $C$DW$110, DW_AT_TI_symbol_name("_pwmHandle")
    1271                      .dwattr $C$DW$110, DW_AT_type(*$C$DW$T$127)
    1272                      .dwattr $C$DW$110, DW_AT_location[DW_OP_reg12]
    1273              ;* AL    assigned to _runMode
    1274              $C$DW$111       .dwtag  DW_TAG_variable, DW_AT_name("runMode")
    1275                      .dwattr $C$DW$111, DW_AT_TI_symbol_name("_runMode")
    1276                      .dwattr $C$DW$111, DW_AT_type(*$C$DW$T$107)
    1277                      .dwattr $C$DW$111, DW_AT_location[DW_OP_reg0]
    1278                      .dwcfi  cfa_offset, -2
    1279                      .dwcfi  save_reg_to_mem, 26, 0
    1280                      .dwcfi  save_reg_to_reg, 78, 26
    1281                      .dwpsn  file "D:/victor TI/Customer issue/Zero/4inOne/Code/sw/drivers/pwm/src/32b/f28x/f2802x/pwm.c",
    1282 000000ab 18C4          AND       *+XAR4[0],#0x3fff     ; [CPU_] |1324| 
         000000ac 3FFF 
    1283                      .dwpsn  file "D:/victor TI/Customer issue/Zero/4inOne/Code/sw/drivers/pwm/src/32b/f28x/f2802x/pwm.c",
    1284 000000ad 98C4          OR        *+XAR4[0],AL          ; [CPU_] |1327| 
    1285              $C$DW$112       .dwtag  DW_TAG_TI_branch
    1286                      .dwattr $C$DW$112, DW_AT_low_pc(0x00)
    1287                      .dwattr $C$DW$112, DW_AT_TI_return
TMS320C2000 Assembler PC v6.2.3 Mon Aug 03 18:20:51 2015

Tools Copyright (c) 1996-2013 Texas Instruments Incorporated
C:\Users\a0220341\AppData\Local\Temp\3112010                         PAGE   25

    1288 000000ae 0006          LRETR     ; [CPU_] 
    1289                      ; return occurs ; [] 
    1290                      .dwattr $C$DW$107, DW_AT_TI_end_file("D:/victor TI/Customer issue/Zero/4inOne/Code/sw/drivers/pwm/src
    1291                      .dwattr $C$DW$107, DW_AT_TI_end_line(0x532)
    1292                      .dwattr $C$DW$107, DW_AT_TI_end_column(0x01)
    1293                      .dwendentry
    1294                      .dwendtag $C$DW$107
    1295              
    1296 000000af               .sect   ".text"
    1297                      .global _PWM_setPhaseDir
    1298              
    1299              $C$DW$113       .dwtag  DW_TAG_subprogram, DW_AT_name("PWM_setPhaseDir")
    1300                      .dwattr $C$DW$113, DW_AT_low_pc(_PWM_setPhaseDir)
    1301                      .dwattr $C$DW$113, DW_AT_high_pc(0x00)
    1302                      .dwattr $C$DW$113, DW_AT_TI_symbol_name("_PWM_setPhaseDir")
    1303                      .dwattr $C$DW$113, DW_AT_external
    1304                      .dwattr $C$DW$113, DW_AT_TI_begin_file("D:/victor TI/Customer issue/Zero/4inOne/Code/sw/drivers/pwm/s
    1305                      .dwattr $C$DW$113, DW_AT_TI_begin_line(0x508)
    1306                      .dwattr $C$DW$113, DW_AT_TI_begin_column(0x06)
    1307                      .dwattr $C$DW$113, DW_AT_TI_max_frame_size(-2)
    1308                      .dwpsn  file "D:/victor TI/Customer issue/Zero/4inOne/Code/sw/drivers/pwm/src/32b/f28x/f2802x/pwm.c",
    1309              
    1310                      .dwfde $C$DW$CIE, _PWM_setPhaseDir
    1311              $C$DW$114       .dwtag  DW_TAG_formal_parameter, DW_AT_name("pwmHandle")
    1312                      .dwattr $C$DW$114, DW_AT_TI_symbol_name("_pwmHandle")
    1313                      .dwattr $C$DW$114, DW_AT_type(*$C$DW$T$33)
    1314                      .dwattr $C$DW$114, DW_AT_location[DW_OP_reg12]
    1315              $C$DW$115       .dwtag  DW_TAG_formal_parameter, DW_AT_name("phaseDir")
    1316                      .dwattr $C$DW$115, DW_AT_TI_symbol_name("_phaseDir")
    1317                      .dwattr $C$DW$115, DW_AT_type(*$C$DW$T$101)
    1318                      .dwattr $C$DW$115, DW_AT_location[DW_OP_reg0]
    1319              
    1320              ;***************************************************************
    1321              ;* FNAME: _PWM_setPhaseDir              FR SIZE:   0           *
    1322              ;*                                                             *
    1323              ;* FUNCTION ENVIRONMENT                                        *
    1324              ;*                                                             *
    1325              ;* FUNCTION PROPERTIES                                         *
    1326              ;*                            0 Parameter,  0 Auto,  0 SOE     *
    1327              ;***************************************************************
    1328              
    1329              _PWM_setPhaseDir:
    1330              ;* AR4   assigned to _pwmHandle
    1331              $C$DW$116       .dwtag  DW_TAG_variable, DW_AT_name("pwmHandle")
    1332                      .dwattr $C$DW$116, DW_AT_TI_symbol_name("_pwmHandle")
    1333                      .dwattr $C$DW$116, DW_AT_type(*$C$DW$T$127)
    1334                      .dwattr $C$DW$116, DW_AT_location[DW_OP_reg12]
    1335              ;* AL    assigned to _phaseDir
    1336              $C$DW$117       .dwtag  DW_TAG_variable, DW_AT_name("phaseDir")
    1337                      .dwattr $C$DW$117, DW_AT_TI_symbol_name("_phaseDir")
    1338                      .dwattr $C$DW$117, DW_AT_type(*$C$DW$T$101)
    1339                      .dwattr $C$DW$117, DW_AT_location[DW_OP_reg0]
    1340                      .dwcfi  cfa_offset, -2
    1341                      .dwcfi  save_reg_to_mem, 26, 0
    1342                      .dwcfi  save_reg_to_reg, 78, 26
TMS320C2000 Assembler PC v6.2.3 Mon Aug 03 18:20:51 2015

Tools Copyright (c) 1996-2013 Texas Instruments Incorporated
C:\Users\a0220341\AppData\Local\Temp\3112010                         PAGE   26

    1343                      .dwpsn  file "D:/victor TI/Customer issue/Zero/4inOne/Code/sw/drivers/pwm/src/32b/f28x/f2802x/pwm.c",
    1344 000000af 18C4          AND       *+XAR4[0],#0xdfff     ; [CPU_] |1294| 
         000000b0 DFFF 
    1345                      .dwpsn  file "D:/victor TI/Customer issue/Zero/4inOne/Code/sw/drivers/pwm/src/32b/f28x/f2802x/pwm.c",
    1346 000000b1 98C4          OR        *+XAR4[0],AL          ; [CPU_] |1297| 
    1347              $C$DW$118       .dwtag  DW_TAG_TI_branch
    1348                      .dwattr $C$DW$118, DW_AT_low_pc(0x00)
    1349                      .dwattr $C$DW$118, DW_AT_TI_return
    1350 000000b2 0006          LRETR     ; [CPU_] 
    1351                      ; return occurs ; [] 
    1352                      .dwattr $C$DW$113, DW_AT_TI_end_file("D:/victor TI/Customer issue/Zero/4inOne/Code/sw/drivers/pwm/src
    1353                      .dwattr $C$DW$113, DW_AT_TI_end_line(0x514)
    1354                      .dwattr $C$DW$113, DW_AT_TI_end_column(0x01)
    1355                      .dwendentry
    1356                      .dwendtag $C$DW$113
    1357              
    1358 000000b3               .sect   ".text"
    1359                      .global _PWM_setPhase
    1360              
    1361              $C$DW$119       .dwtag  DW_TAG_subprogram, DW_AT_name("PWM_setPhase")
    1362                      .dwattr $C$DW$119, DW_AT_low_pc(_PWM_setPhase)
    1363                      .dwattr $C$DW$119, DW_AT_high_pc(0x00)
    1364                      .dwattr $C$DW$119, DW_AT_TI_symbol_name("_PWM_setPhase")
    1365                      .dwattr $C$DW$119, DW_AT_external
    1366                      .dwattr $C$DW$119, DW_AT_TI_begin_file("D:/victor TI/Customer issue/Zero/4inOne/Code/sw/drivers/pwm/s
    1367                      .dwattr $C$DW$119, DW_AT_TI_begin_line(0x4fd)
    1368                      .dwattr $C$DW$119, DW_AT_TI_begin_column(0x06)
    1369                      .dwattr $C$DW$119, DW_AT_TI_max_frame_size(-2)
    1370                      .dwpsn  file "D:/victor TI/Customer issue/Zero/4inOne/Code/sw/drivers/pwm/src/32b/f28x/f2802x/pwm.c",
    1371              
    1372                      .dwfde $C$DW$CIE, _PWM_setPhase
    1373              $C$DW$120       .dwtag  DW_TAG_formal_parameter, DW_AT_name("pwmHandle")
    1374                      .dwattr $C$DW$120, DW_AT_TI_symbol_name("_pwmHandle")
    1375                      .dwattr $C$DW$120, DW_AT_type(*$C$DW$T$33)
    1376                      .dwattr $C$DW$120, DW_AT_location[DW_OP_reg12]
    1377              $C$DW$121       .dwtag  DW_TAG_formal_parameter, DW_AT_name("phase")
    1378                      .dwattr $C$DW$121, DW_AT_TI_symbol_name("_phase")
    1379                      .dwattr $C$DW$121, DW_AT_type(*$C$DW$T$146)
    1380                      .dwattr $C$DW$121, DW_AT_location[DW_OP_reg0]
    1381              
    1382              ;***************************************************************
    1383              ;* FNAME: _PWM_setPhase                 FR SIZE:   0           *
    1384              ;*                                                             *
    1385              ;* FUNCTION ENVIRONMENT                                        *
    1386              ;*                                                             *
    1387              ;* FUNCTION PROPERTIES                                         *
    1388              ;*                            0 Parameter,  0 Auto,  0 SOE     *
    1389              ;***************************************************************
    1390              
    1391              _PWM_setPhase:
    1392              ;* AR4   assigned to _pwmHandle
    1393              $C$DW$122       .dwtag  DW_TAG_variable, DW_AT_name("pwmHandle")
    1394                      .dwattr $C$DW$122, DW_AT_TI_symbol_name("_pwmHandle")
    1395                      .dwattr $C$DW$122, DW_AT_type(*$C$DW$T$127)
    1396                      .dwattr $C$DW$122, DW_AT_location[DW_OP_reg12]
TMS320C2000 Assembler PC v6.2.3 Mon Aug 03 18:20:51 2015

Tools Copyright (c) 1996-2013 Texas Instruments Incorporated
C:\Users\a0220341\AppData\Local\Temp\3112010                         PAGE   27

    1397              ;* AL    assigned to _phase
    1398              $C$DW$123       .dwtag  DW_TAG_variable, DW_AT_name("phase")
    1399                      .dwattr $C$DW$123, DW_AT_TI_symbol_name("_phase")
    1400                      .dwattr $C$DW$123, DW_AT_type(*$C$DW$T$146)
    1401                      .dwattr $C$DW$123, DW_AT_location[DW_OP_reg0]
    1402                      .dwcfi  cfa_offset, -2
    1403                      .dwcfi  save_reg_to_mem, 26, 0
    1404                      .dwcfi  save_reg_to_reg, 78, 26
    1405                      .dwpsn  file "D:/victor TI/Customer issue/Zero/4inOne/Code/sw/drivers/pwm/src/32b/f28x/f2802x/pwm.c",
    1406 000000b3 96DC          MOV       *+XAR4[3],AL          ; [CPU_] |1282| 
    1407              $C$DW$124       .dwtag  DW_TAG_TI_branch
    1408                      .dwattr $C$DW$124, DW_AT_low_pc(0x00)
    1409                      .dwattr $C$DW$124, DW_AT_TI_return
    1410 000000b4 0006          LRETR     ; [CPU_] 
    1411                      ; return occurs ; [] 
    1412                      .dwattr $C$DW$119, DW_AT_TI_end_file("D:/victor TI/Customer issue/Zero/4inOne/Code/sw/drivers/pwm/src
    1413                      .dwattr $C$DW$119, DW_AT_TI_end_line(0x505)
    1414                      .dwattr $C$DW$119, DW_AT_TI_end_column(0x01)
    1415                      .dwendentry
    1416                      .dwendtag $C$DW$119
    1417              
    1418 000000b5               .sect   ".text"
    1419                      .global _PWM_setPeriodLoad
    1420              
    1421              $C$DW$125       .dwtag  DW_TAG_subprogram, DW_AT_name("PWM_setPeriodLoad")
    1422                      .dwattr $C$DW$125, DW_AT_low_pc(_PWM_setPeriodLoad)
    1423                      .dwattr $C$DW$125, DW_AT_high_pc(0x00)
    1424                      .dwattr $C$DW$125, DW_AT_TI_symbol_name("_PWM_setPeriodLoad")
    1425                      .dwattr $C$DW$125, DW_AT_external
    1426                      .dwattr $C$DW$125, DW_AT_TI_begin_file("D:/victor TI/Customer issue/Zero/4inOne/Code/sw/drivers/pwm/s
    1427                      .dwattr $C$DW$125, DW_AT_TI_begin_line(0x517)
    1428                      .dwattr $C$DW$125, DW_AT_TI_begin_column(0x06)
    1429                      .dwattr $C$DW$125, DW_AT_TI_max_frame_size(-2)
    1430                      .dwpsn  file "D:/victor TI/Customer issue/Zero/4inOne/Code/sw/drivers/pwm/src/32b/f28x/f2802x/pwm.c",
    1431              
    1432                      .dwfde $C$DW$CIE, _PWM_setPeriodLoad
    1433              $C$DW$126       .dwtag  DW_TAG_formal_parameter, DW_AT_name("pwmHandle")
    1434                      .dwattr $C$DW$126, DW_AT_TI_symbol_name("_pwmHandle")
    1435                      .dwattr $C$DW$126, DW_AT_type(*$C$DW$T$33)
    1436                      .dwattr $C$DW$126, DW_AT_location[DW_OP_reg12]
    1437              $C$DW$127       .dwtag  DW_TAG_formal_parameter, DW_AT_name("periodLoad")
    1438                      .dwattr $C$DW$127, DW_AT_TI_symbol_name("_periodLoad")
    1439                      .dwattr $C$DW$127, DW_AT_type(*$C$DW$T$104)
    1440                      .dwattr $C$DW$127, DW_AT_location[DW_OP_reg0]
    1441              
    1442              ;***************************************************************
    1443              ;* FNAME: _PWM_setPeriodLoad            FR SIZE:   0           *
    1444              ;*                                                             *
    1445              ;* FUNCTION ENVIRONMENT                                        *
    1446              ;*                                                             *
    1447              ;* FUNCTION PROPERTIES                                         *
    1448              ;*                            0 Parameter,  0 Auto,  0 SOE     *
    1449              ;***************************************************************
    1450              
    1451              _PWM_setPeriodLoad:
TMS320C2000 Assembler PC v6.2.3 Mon Aug 03 18:20:51 2015

Tools Copyright (c) 1996-2013 Texas Instruments Incorporated
C:\Users\a0220341\AppData\Local\Temp\3112010                         PAGE   28

    1452              ;* AR4   assigned to _pwmHandle
    1453              $C$DW$128       .dwtag  DW_TAG_variable, DW_AT_name("pwmHandle")
    1454                      .dwattr $C$DW$128, DW_AT_TI_symbol_name("_pwmHandle")
    1455                      .dwattr $C$DW$128, DW_AT_type(*$C$DW$T$127)
    1456                      .dwattr $C$DW$128, DW_AT_location[DW_OP_reg12]
    1457              ;* AL    assigned to _periodLoad
    1458              $C$DW$129       .dwtag  DW_TAG_variable, DW_AT_name("periodLoad")
    1459                      .dwattr $C$DW$129, DW_AT_TI_symbol_name("_periodLoad")
    1460                      .dwattr $C$DW$129, DW_AT_type(*$C$DW$T$104)
    1461                      .dwattr $C$DW$129, DW_AT_location[DW_OP_reg0]
    1462                      .dwcfi  cfa_offset, -2
    1463                      .dwcfi  save_reg_to_mem, 26, 0
    1464                      .dwcfi  save_reg_to_reg, 78, 26
    1465                      .dwpsn  file "D:/victor TI/Customer issue/Zero/4inOne/Code/sw/drivers/pwm/src/32b/f28x/f2802x/pwm.c",
    1466 000000b5 18C4          AND       *+XAR4[0],#0xfff7     ; [CPU_] |1309| 
         000000b6 FFF7 
    1467                      .dwpsn  file "D:/victor TI/Customer issue/Zero/4inOne/Code/sw/drivers/pwm/src/32b/f28x/f2802x/pwm.c",
    1468 000000b7 98C4          OR        *+XAR4[0],AL          ; [CPU_] |1312| 
    1469              $C$DW$130       .dwtag  DW_TAG_TI_branch
    1470                      .dwattr $C$DW$130, DW_AT_low_pc(0x00)
    1471                      .dwattr $C$DW$130, DW_AT_TI_return
    1472 000000b8 0006          LRETR     ; [CPU_] 
    1473                      ; return occurs ; [] 
    1474                      .dwattr $C$DW$125, DW_AT_TI_end_file("D:/victor TI/Customer issue/Zero/4inOne/Code/sw/drivers/pwm/src
    1475                      .dwattr $C$DW$125, DW_AT_TI_end_line(0x523)
    1476                      .dwattr $C$DW$125, DW_AT_TI_end_column(0x01)
    1477                      .dwendentry
    1478                      .dwendtag $C$DW$125
    1479              
    1480 000000b9               .sect   ".text"
    1481                      .global _PWM_setPeriodHr
    1482              
    1483              $C$DW$131       .dwtag  DW_TAG_subprogram, DW_AT_name("PWM_setPeriodHr")
    1484                      .dwattr $C$DW$131, DW_AT_low_pc(_PWM_setPeriodHr)
    1485                      .dwattr $C$DW$131, DW_AT_high_pc(0x00)
    1486                      .dwattr $C$DW$131, DW_AT_TI_symbol_name("_PWM_setPeriodHr")
    1487                      .dwattr $C$DW$131, DW_AT_external
    1488                      .dwattr $C$DW$131, DW_AT_TI_begin_file("D:/victor TI/Customer issue/Zero/4inOne/Code/sw/drivers/pwm/s
    1489                      .dwattr $C$DW$131, DW_AT_TI_begin_line(0x4ee)
    1490                      .dwattr $C$DW$131, DW_AT_TI_begin_column(0x06)
    1491                      .dwattr $C$DW$131, DW_AT_TI_max_frame_size(-2)
    1492                      .dwpsn  file "D:/victor TI/Customer issue/Zero/4inOne/Code/sw/drivers/pwm/src/32b/f28x/f2802x/pwm.c",
    1493              
    1494                      .dwfde $C$DW$CIE, _PWM_setPeriodHr
    1495              $C$DW$132       .dwtag  DW_TAG_formal_parameter, DW_AT_name("pwmHandle")
    1496                      .dwattr $C$DW$132, DW_AT_TI_symbol_name("_pwmHandle")
    1497                      .dwattr $C$DW$132, DW_AT_type(*$C$DW$T$33)
    1498                      .dwattr $C$DW$132, DW_AT_location[DW_OP_reg12]
    1499              $C$DW$133       .dwtag  DW_TAG_formal_parameter, DW_AT_name("period")
    1500                      .dwattr $C$DW$133, DW_AT_TI_symbol_name("_period")
    1501                      .dwattr $C$DW$133, DW_AT_type(*$C$DW$T$146)
    1502                      .dwattr $C$DW$133, DW_AT_location[DW_OP_reg0]
    1503              
    1504              ;***************************************************************
    1505              ;* FNAME: _PWM_setPeriodHr              FR SIZE:   0           *
TMS320C2000 Assembler PC v6.2.3 Mon Aug 03 18:20:51 2015

Tools Copyright (c) 1996-2013 Texas Instruments Incorporated
C:\Users\a0220341\AppData\Local\Temp\3112010                         PAGE   29

    1506              ;*                                                             *
    1507              ;* FUNCTION ENVIRONMENT                                        *
    1508              ;*                                                             *
    1509              ;* FUNCTION PROPERTIES                                         *
    1510              ;*                            0 Parameter,  0 Auto,  0 SOE     *
    1511              ;***************************************************************
    1512              
    1513              _PWM_setPeriodHr:
    1514              ;* AR4   assigned to _pwmHandle
    1515              $C$DW$134       .dwtag  DW_TAG_variable, DW_AT_name("pwmHandle")
    1516                      .dwattr $C$DW$134, DW_AT_TI_symbol_name("_pwmHandle")
    1517                      .dwattr $C$DW$134, DW_AT_type(*$C$DW$T$127)
    1518                      .dwattr $C$DW$134, DW_AT_location[DW_OP_reg12]
    1519              ;* AL    assigned to _period
    1520              $C$DW$135       .dwtag  DW_TAG_variable, DW_AT_name("period")
    1521                      .dwattr $C$DW$135, DW_AT_TI_symbol_name("_period")
    1522                      .dwattr $C$DW$135, DW_AT_type(*$C$DW$T$146)
    1523                      .dwattr $C$DW$135, DW_AT_location[DW_OP_reg0]
    1524                      .dwcfi  cfa_offset, -2
    1525                      .dwcfi  save_reg_to_mem, 26, 0
    1526                      .dwcfi  save_reg_to_reg, 78, 26
    1527 000000b9 7622   EALLOW
    1528                      .dwpsn  file "D:/victor TI/Customer issue/Zero/4inOne/Code/sw/drivers/pwm/src/32b/f28x/f2802x/pwm.c",
    1529 000000ba 96F4          MOV       *+XAR4[6],AL          ; [CPU_] |1269| 
    1530 000000bb 761A   EDIS
    1531 000000bc FF69          SPM       #0                    ; [CPU_] 
    1532              $C$DW$136       .dwtag  DW_TAG_TI_branch
    1533                      .dwattr $C$DW$136, DW_AT_low_pc(0x00)
    1534                      .dwattr $C$DW$136, DW_AT_TI_return
    1535 000000bd 0006          LRETR     ; [CPU_] 
    1536                      ; return occurs ; [] 
    1537                      .dwattr $C$DW$131, DW_AT_TI_end_file("D:/victor TI/Customer issue/Zero/4inOne/Code/sw/drivers/pwm/src
    1538                      .dwattr $C$DW$131, DW_AT_TI_end_line(0x4fa)
    1539                      .dwattr $C$DW$131, DW_AT_TI_end_column(0x01)
    1540                      .dwendentry
    1541                      .dwendtag $C$DW$131
    1542              
    1543 000000be               .sect   ".text"
    1544                      .global _PWM_setPeriod
    1545              
    1546              $C$DW$137       .dwtag  DW_TAG_subprogram, DW_AT_name("PWM_setPeriod")
    1547                      .dwattr $C$DW$137, DW_AT_low_pc(_PWM_setPeriod)
    1548                      .dwattr $C$DW$137, DW_AT_high_pc(0x00)
    1549                      .dwattr $C$DW$137, DW_AT_TI_symbol_name("_PWM_setPeriod")
    1550                      .dwattr $C$DW$137, DW_AT_external
    1551                      .dwattr $C$DW$137, DW_AT_TI_begin_file("D:/victor TI/Customer issue/Zero/4inOne/Code/sw/drivers/pwm/s
    1552                      .dwattr $C$DW$137, DW_AT_TI_begin_line(0x4e2)
    1553                      .dwattr $C$DW$137, DW_AT_TI_begin_column(0x06)
    1554                      .dwattr $C$DW$137, DW_AT_TI_max_frame_size(-2)
    1555                      .dwpsn  file "D:/victor TI/Customer issue/Zero/4inOne/Code/sw/drivers/pwm/src/32b/f28x/f2802x/pwm.c",
    1556              
    1557                      .dwfde $C$DW$CIE, _PWM_setPeriod
    1558              $C$DW$138       .dwtag  DW_TAG_formal_parameter, DW_AT_name("pwmHandle")
    1559                      .dwattr $C$DW$138, DW_AT_TI_symbol_name("_pwmHandle")
    1560                      .dwattr $C$DW$138, DW_AT_type(*$C$DW$T$33)
TMS320C2000 Assembler PC v6.2.3 Mon Aug 03 18:20:51 2015

Tools Copyright (c) 1996-2013 Texas Instruments Incorporated
C:\Users\a0220341\AppData\Local\Temp\3112010                         PAGE   30

    1561                      .dwattr $C$DW$138, DW_AT_location[DW_OP_reg12]
    1562              $C$DW$139       .dwtag  DW_TAG_formal_parameter, DW_AT_name("period")
    1563                      .dwattr $C$DW$139, DW_AT_TI_symbol_name("_period")
    1564                      .dwattr $C$DW$139, DW_AT_type(*$C$DW$T$146)
    1565                      .dwattr $C$DW$139, DW_AT_location[DW_OP_reg0]
    1566              
    1567              ;***************************************************************
    1568              ;* FNAME: _PWM_setPeriod                FR SIZE:   0           *
    1569              ;*                                                             *
    1570              ;* FUNCTION ENVIRONMENT                                        *
    1571              ;*                                                             *
    1572              ;* FUNCTION PROPERTIES                                         *
    1573              ;*                            0 Parameter,  0 Auto,  0 SOE     *
    1574              ;***************************************************************
    1575              
    1576              _PWM_setPeriod:
    1577              ;* AR4   assigned to _pwmHandle
    1578              $C$DW$140       .dwtag  DW_TAG_variable, DW_AT_name("pwmHandle")
    1579                      .dwattr $C$DW$140, DW_AT_TI_symbol_name("_pwmHandle")
    1580                      .dwattr $C$DW$140, DW_AT_type(*$C$DW$T$127)
    1581                      .dwattr $C$DW$140, DW_AT_location[DW_OP_reg12]
    1582              ;* AL    assigned to _period
    1583              $C$DW$141       .dwtag  DW_TAG_variable, DW_AT_name("period")
    1584                      .dwattr $C$DW$141, DW_AT_TI_symbol_name("_period")
    1585                      .dwattr $C$DW$141, DW_AT_type(*$C$DW$T$146)
    1586                      .dwattr $C$DW$141, DW_AT_location[DW_OP_reg0]
    1587                      .dwcfi  cfa_offset, -2
    1588                      .dwcfi  save_reg_to_mem, 26, 0
    1589                      .dwcfi  save_reg_to_reg, 78, 26
    1590                      .dwpsn  file "D:/victor TI/Customer issue/Zero/4inOne/Code/sw/drivers/pwm/src/32b/f28x/f2802x/pwm.c",
    1591 000000be 96EC          MOV       *+XAR4[5],AL          ; [CPU_] |1256| 
    1592              $C$DW$142       .dwtag  DW_TAG_TI_branch
    1593                      .dwattr $C$DW$142, DW_AT_low_pc(0x00)
    1594                      .dwattr $C$DW$142, DW_AT_TI_return
    1595 000000bf 0006          LRETR     ; [CPU_] 
    1596                      ; return occurs ; [] 
    1597                      .dwattr $C$DW$137, DW_AT_TI_end_file("D:/victor TI/Customer issue/Zero/4inOne/Code/sw/drivers/pwm/src
    1598                      .dwattr $C$DW$137, DW_AT_TI_end_line(0x4eb)
    1599                      .dwattr $C$DW$137, DW_AT_TI_end_column(0x01)
    1600                      .dwendentry
    1601                      .dwendtag $C$DW$137
    1602              
    1603 000000c0               .sect   ".text"
    1604                      .global _PWM_setLoadMode_CmpB
    1605              
    1606              $C$DW$143       .dwtag  DW_TAG_subprogram, DW_AT_name("PWM_setLoadMode_CmpB")
    1607                      .dwattr $C$DW$143, DW_AT_low_pc(_PWM_setLoadMode_CmpB)
    1608                      .dwattr $C$DW$143, DW_AT_high_pc(0x00)
    1609                      .dwattr $C$DW$143, DW_AT_TI_symbol_name("_PWM_setLoadMode_CmpB")
    1610                      .dwattr $C$DW$143, DW_AT_external
    1611                      .dwattr $C$DW$143, DW_AT_TI_begin_file("D:/victor TI/Customer issue/Zero/4inOne/Code/sw/drivers/pwm/s
    1612                      .dwattr $C$DW$143, DW_AT_TI_begin_line(0x4d3)
    1613                      .dwattr $C$DW$143, DW_AT_TI_begin_column(0x06)
    1614                      .dwattr $C$DW$143, DW_AT_TI_max_frame_size(-2)
    1615                      .dwpsn  file "D:/victor TI/Customer issue/Zero/4inOne/Code/sw/drivers/pwm/src/32b/f28x/f2802x/pwm.c",
TMS320C2000 Assembler PC v6.2.3 Mon Aug 03 18:20:51 2015

Tools Copyright (c) 1996-2013 Texas Instruments Incorporated
C:\Users\a0220341\AppData\Local\Temp\3112010                         PAGE   31

    1616              
    1617                      .dwfde $C$DW$CIE, _PWM_setLoadMode_CmpB
    1618              $C$DW$144       .dwtag  DW_TAG_formal_parameter, DW_AT_name("pwmHandle")
    1619                      .dwattr $C$DW$144, DW_AT_TI_symbol_name("_pwmHandle")
    1620                      .dwattr $C$DW$144, DW_AT_type(*$C$DW$T$33)
    1621                      .dwattr $C$DW$144, DW_AT_location[DW_OP_reg12]
    1622              $C$DW$145       .dwtag  DW_TAG_formal_parameter, DW_AT_name("loadMode")
    1623                      .dwattr $C$DW$145, DW_AT_TI_symbol_name("_loadMode")
    1624                      .dwattr $C$DW$145, DW_AT_type(*$C$DW$T$98)
    1625                      .dwattr $C$DW$145, DW_AT_location[DW_OP_reg0]
    1626              
    1627              ;***************************************************************
    1628              ;* FNAME: _PWM_setLoadMode_CmpB         FR SIZE:   0           *
    1629              ;*                                                             *
    1630              ;* FUNCTION ENVIRONMENT                                        *
    1631              ;*                                                             *
    1632              ;* FUNCTION PROPERTIES                                         *
    1633              ;*                            0 Parameter,  0 Auto,  0 SOE     *
    1634              ;***************************************************************
    1635              
    1636              _PWM_setLoadMode_CmpB:
    1637              ;* AR4   assigned to _pwmHandle
    1638              $C$DW$146       .dwtag  DW_TAG_variable, DW_AT_name("pwmHandle")
    1639                      .dwattr $C$DW$146, DW_AT_TI_symbol_name("_pwmHandle")
    1640                      .dwattr $C$DW$146, DW_AT_type(*$C$DW$T$127)
    1641                      .dwattr $C$DW$146, DW_AT_location[DW_OP_reg12]
    1642              ;* AL    assigned to _loadMode
    1643              $C$DW$147       .dwtag  DW_TAG_variable, DW_AT_name("loadMode")
    1644                      .dwattr $C$DW$147, DW_AT_TI_symbol_name("_loadMode")
    1645                      .dwattr $C$DW$147, DW_AT_type(*$C$DW$T$98)
    1646                      .dwattr $C$DW$147, DW_AT_location[DW_OP_reg0]
    1647                      .dwcfi  cfa_offset, -2
    1648                      .dwcfi  save_reg_to_mem, 26, 0
    1649                      .dwcfi  save_reg_to_reg, 78, 26
    1650                      .dwpsn  file "D:/victor TI/Customer issue/Zero/4inOne/Code/sw/drivers/pwm/src/32b/f28x/f2802x/pwm.c",
    1651 000000c0 18FC          AND       *+XAR4[7],#0xfff3     ; [CPU_] |1241| 
         000000c1 FFF3 
    1652                      .dwpsn  file "D:/victor TI/Customer issue/Zero/4inOne/Code/sw/drivers/pwm/src/32b/f28x/f2802x/pwm.c",
    1653 000000c2 5603          MOV       ACC,AL << #2          ; [CPU_] |1244| 
         000000c3 02A9 
    1654 000000c4 98FC          OR        *+XAR4[7],AL          ; [CPU_] |1244| 
    1655              $C$DW$148       .dwtag  DW_TAG_TI_branch
    1656                      .dwattr $C$DW$148, DW_AT_low_pc(0x00)
    1657                      .dwattr $C$DW$148, DW_AT_TI_return
    1658 000000c5 0006          LRETR     ; [CPU_] 
    1659                      ; return occurs ; [] 
    1660                      .dwattr $C$DW$143, DW_AT_TI_end_file("D:/victor TI/Customer issue/Zero/4inOne/Code/sw/drivers/pwm/src
    1661                      .dwattr $C$DW$143, DW_AT_TI_end_line(0x4df)
    1662                      .dwattr $C$DW$143, DW_AT_TI_end_column(0x01)
    1663                      .dwendentry
    1664                      .dwendtag $C$DW$143
    1665              
    1666 000000c6               .sect   ".text"
    1667                      .global _PWM_setLoadMode_CmpA
    1668              
TMS320C2000 Assembler PC v6.2.3 Mon Aug 03 18:20:51 2015

Tools Copyright (c) 1996-2013 Texas Instruments Incorporated
C:\Users\a0220341\AppData\Local\Temp\3112010                         PAGE   32

    1669              $C$DW$149       .dwtag  DW_TAG_subprogram, DW_AT_name("PWM_setLoadMode_CmpA")
    1670                      .dwattr $C$DW$149, DW_AT_low_pc(_PWM_setLoadMode_CmpA)
    1671                      .dwattr $C$DW$149, DW_AT_high_pc(0x00)
    1672                      .dwattr $C$DW$149, DW_AT_TI_symbol_name("_PWM_setLoadMode_CmpA")
    1673                      .dwattr $C$DW$149, DW_AT_external
    1674                      .dwattr $C$DW$149, DW_AT_TI_begin_file("D:/victor TI/Customer issue/Zero/4inOne/Code/sw/drivers/pwm/s
    1675                      .dwattr $C$DW$149, DW_AT_TI_begin_line(0x4c4)
    1676                      .dwattr $C$DW$149, DW_AT_TI_begin_column(0x06)
    1677                      .dwattr $C$DW$149, DW_AT_TI_max_frame_size(-2)
    1678                      .dwpsn  file "D:/victor TI/Customer issue/Zero/4inOne/Code/sw/drivers/pwm/src/32b/f28x/f2802x/pwm.c",
    1679              
    1680                      .dwfde $C$DW$CIE, _PWM_setLoadMode_CmpA
    1681              $C$DW$150       .dwtag  DW_TAG_formal_parameter, DW_AT_name("pwmHandle")
    1682                      .dwattr $C$DW$150, DW_AT_TI_symbol_name("_pwmHandle")
    1683                      .dwattr $C$DW$150, DW_AT_type(*$C$DW$T$33)
    1684                      .dwattr $C$DW$150, DW_AT_location[DW_OP_reg12]
    1685              $C$DW$151       .dwtag  DW_TAG_formal_parameter, DW_AT_name("loadMode")
    1686                      .dwattr $C$DW$151, DW_AT_TI_symbol_name("_loadMode")
    1687                      .dwattr $C$DW$151, DW_AT_type(*$C$DW$T$98)
    1688                      .dwattr $C$DW$151, DW_AT_location[DW_OP_reg0]
    1689              
    1690              ;***************************************************************
    1691              ;* FNAME: _PWM_setLoadMode_CmpA         FR SIZE:   0           *
    1692              ;*                                                             *
    1693              ;* FUNCTION ENVIRONMENT                                        *
    1694              ;*                                                             *
    1695              ;* FUNCTION PROPERTIES                                         *
    1696              ;*                            0 Parameter,  0 Auto,  0 SOE     *
    1697              ;***************************************************************
    1698              
    1699              _PWM_setLoadMode_CmpA:
    1700              ;* AR4   assigned to _pwmHandle
    1701              $C$DW$152       .dwtag  DW_TAG_variable, DW_AT_name("pwmHandle")
    1702                      .dwattr $C$DW$152, DW_AT_TI_symbol_name("_pwmHandle")
    1703                      .dwattr $C$DW$152, DW_AT_type(*$C$DW$T$127)
    1704                      .dwattr $C$DW$152, DW_AT_location[DW_OP_reg12]
    1705              ;* AL    assigned to _loadMode
    1706              $C$DW$153       .dwtag  DW_TAG_variable, DW_AT_name("loadMode")
    1707                      .dwattr $C$DW$153, DW_AT_TI_symbol_name("_loadMode")
    1708                      .dwattr $C$DW$153, DW_AT_type(*$C$DW$T$98)
    1709                      .dwattr $C$DW$153, DW_AT_location[DW_OP_reg0]
    1710                      .dwcfi  cfa_offset, -2
    1711                      .dwcfi  save_reg_to_mem, 26, 0
    1712                      .dwcfi  save_reg_to_reg, 78, 26
    1713                      .dwpsn  file "D:/victor TI/Customer issue/Zero/4inOne/Code/sw/drivers/pwm/src/32b/f28x/f2802x/pwm.c",
    1714 000000c6 18FC          AND       *+XAR4[7],#0xfffc     ; [CPU_] |1226| 
         000000c7 FFFC 
    1715                      .dwpsn  file "D:/victor TI/Customer issue/Zero/4inOne/Code/sw/drivers/pwm/src/32b/f28x/f2802x/pwm.c",
    1716 000000c8 98FC          OR        *+XAR4[7],AL          ; [CPU_] |1229| 
    1717              $C$DW$154       .dwtag  DW_TAG_TI_branch
    1718                      .dwattr $C$DW$154, DW_AT_low_pc(0x00)
    1719                      .dwattr $C$DW$154, DW_AT_TI_return
    1720 000000c9 0006          LRETR     ; [CPU_] 
    1721                      ; return occurs ; [] 
    1722                      .dwattr $C$DW$149, DW_AT_TI_end_file("D:/victor TI/Customer issue/Zero/4inOne/Code/sw/drivers/pwm/src
TMS320C2000 Assembler PC v6.2.3 Mon Aug 03 18:20:51 2015

Tools Copyright (c) 1996-2013 Texas Instruments Incorporated
C:\Users\a0220341\AppData\Local\Temp\3112010                         PAGE   33

    1723                      .dwattr $C$DW$149, DW_AT_TI_end_line(0x4d0)
    1724                      .dwattr $C$DW$149, DW_AT_TI_end_column(0x01)
    1725                      .dwendentry
    1726                      .dwendtag $C$DW$149
    1727              
    1728 000000ca               .sect   ".text"
    1729                      .global _PWM_setIntPeriod
    1730              
    1731              $C$DW$155       .dwtag  DW_TAG_subprogram, DW_AT_name("PWM_setIntPeriod")
    1732                      .dwattr $C$DW$155, DW_AT_low_pc(_PWM_setIntPeriod)
    1733                      .dwattr $C$DW$155, DW_AT_high_pc(0x00)
    1734                      .dwattr $C$DW$155, DW_AT_TI_symbol_name("_PWM_setIntPeriod")
    1735                      .dwattr $C$DW$155, DW_AT_external
    1736                      .dwattr $C$DW$155, DW_AT_TI_begin_file("D:/victor TI/Customer issue/Zero/4inOne/Code/sw/drivers/pwm/s
    1737                      .dwattr $C$DW$155, DW_AT_TI_begin_line(0x4b5)
    1738                      .dwattr $C$DW$155, DW_AT_TI_begin_column(0x06)
    1739                      .dwattr $C$DW$155, DW_AT_TI_max_frame_size(-2)
    1740                      .dwpsn  file "D:/victor TI/Customer issue/Zero/4inOne/Code/sw/drivers/pwm/src/32b/f28x/f2802x/pwm.c",
    1741              
    1742                      .dwfde $C$DW$CIE, _PWM_setIntPeriod
    1743              $C$DW$156       .dwtag  DW_TAG_formal_parameter, DW_AT_name("pwmHandle")
    1744                      .dwattr $C$DW$156, DW_AT_TI_symbol_name("_pwmHandle")
    1745                      .dwattr $C$DW$156, DW_AT_type(*$C$DW$T$33)
    1746                      .dwattr $C$DW$156, DW_AT_location[DW_OP_reg12]
    1747              $C$DW$157       .dwtag  DW_TAG_formal_parameter, DW_AT_name("intPeriod")
    1748                      .dwattr $C$DW$157, DW_AT_TI_symbol_name("_intPeriod")
    1749                      .dwattr $C$DW$157, DW_AT_type(*$C$DW$T$95)
    1750                      .dwattr $C$DW$157, DW_AT_location[DW_OP_reg0]
    1751              
    1752              ;***************************************************************
    1753              ;* FNAME: _PWM_setIntPeriod             FR SIZE:   0           *
    1754              ;*                                                             *
    1755              ;* FUNCTION ENVIRONMENT                                        *
    1756              ;*                                                             *
    1757              ;* FUNCTION PROPERTIES                                         *
    1758              ;*                            0 Parameter,  0 Auto,  0 SOE     *
    1759              ;***************************************************************
    1760              
    1761              _PWM_setIntPeriod:
    1762              ;* AR4   assigned to _pwmHandle
    1763              $C$DW$158       .dwtag  DW_TAG_variable, DW_AT_name("pwmHandle")
    1764                      .dwattr $C$DW$158, DW_AT_TI_symbol_name("_pwmHandle")
    1765                      .dwattr $C$DW$158, DW_AT_type(*$C$DW$T$127)
    1766                      .dwattr $C$DW$158, DW_AT_location[DW_OP_reg12]
    1767              ;* AL    assigned to _intPeriod
    1768              $C$DW$159       .dwtag  DW_TAG_variable, DW_AT_name("intPeriod")
    1769                      .dwattr $C$DW$159, DW_AT_TI_symbol_name("_intPeriod")
    1770                      .dwattr $C$DW$159, DW_AT_type(*$C$DW$T$95)
    1771                      .dwattr $C$DW$159, DW_AT_location[DW_OP_reg0]
    1772                      .dwcfi  cfa_offset, -2
    1773                      .dwcfi  save_reg_to_mem, 26, 0
    1774                      .dwcfi  save_reg_to_reg, 78, 26
    1775                      .dwpsn  file "D:/victor TI/Customer issue/Zero/4inOne/Code/sw/drivers/pwm/src/32b/f28x/f2802x/pwm.c",
    1776 000000ca 83A4          MOVL      XAR5,XAR4             ; [CPU_] |1211| 
    1777 000000cb DD1A          ADDB      XAR5,#26              ; [CPU_] |1211| 
TMS320C2000 Assembler PC v6.2.3 Mon Aug 03 18:20:51 2015

Tools Copyright (c) 1996-2013 Texas Instruments Incorporated
C:\Users\a0220341\AppData\Local\Temp\3112010                         PAGE   34

    1778 000000cc 18C5          AND       *+XAR5[0],#0xfffc     ; [CPU_] |1211| 
         000000cd FFFC 
    1779                      .dwpsn  file "D:/victor TI/Customer issue/Zero/4inOne/Code/sw/drivers/pwm/src/32b/f28x/f2802x/pwm.c",
    1780 000000ce DC1A          ADDB      XAR4,#26              ; [CPU_] |1214| 
    1781 000000cf 98C4          OR        *+XAR4[0],AL          ; [CPU_] |1214| 
    1782              $C$DW$160       .dwtag  DW_TAG_TI_branch
    1783                      .dwattr $C$DW$160, DW_AT_low_pc(0x00)
    1784                      .dwattr $C$DW$160, DW_AT_TI_return
    1785 000000d0 0006          LRETR     ; [CPU_] 
    1786                      ; return occurs ; [] 
    1787                      .dwattr $C$DW$155, DW_AT_TI_end_file("D:/victor TI/Customer issue/Zero/4inOne/Code/sw/drivers/pwm/src
    1788                      .dwattr $C$DW$155, DW_AT_TI_end_line(0x4c1)
    1789                      .dwattr $C$DW$155, DW_AT_TI_end_column(0x01)
    1790                      .dwendentry
    1791                      .dwendtag $C$DW$155
    1792              
    1793 000000d1               .sect   ".text"
    1794                      .global _PWM_setIntMode
    1795              
    1796              $C$DW$161       .dwtag  DW_TAG_subprogram, DW_AT_name("PWM_setIntMode")
    1797                      .dwattr $C$DW$161, DW_AT_low_pc(_PWM_setIntMode)
    1798                      .dwattr $C$DW$161, DW_AT_high_pc(0x00)
    1799                      .dwattr $C$DW$161, DW_AT_TI_symbol_name("_PWM_setIntMode")
    1800                      .dwattr $C$DW$161, DW_AT_external
    1801                      .dwattr $C$DW$161, DW_AT_TI_begin_file("D:/victor TI/Customer issue/Zero/4inOne/Code/sw/drivers/pwm/s
    1802                      .dwattr $C$DW$161, DW_AT_TI_begin_line(0x4a6)
    1803                      .dwattr $C$DW$161, DW_AT_TI_begin_column(0x06)
    1804                      .dwattr $C$DW$161, DW_AT_TI_max_frame_size(-2)
    1805                      .dwpsn  file "D:/victor TI/Customer issue/Zero/4inOne/Code/sw/drivers/pwm/src/32b/f28x/f2802x/pwm.c",
    1806              
    1807                      .dwfde $C$DW$CIE, _PWM_setIntMode
    1808              $C$DW$162       .dwtag  DW_TAG_formal_parameter, DW_AT_name("pwmHandle")
    1809                      .dwattr $C$DW$162, DW_AT_TI_symbol_name("_pwmHandle")
    1810                      .dwattr $C$DW$162, DW_AT_type(*$C$DW$T$33)
    1811                      .dwattr $C$DW$162, DW_AT_location[DW_OP_reg12]
    1812              $C$DW$163       .dwtag  DW_TAG_formal_parameter, DW_AT_name("intMode")
    1813                      .dwattr $C$DW$163, DW_AT_TI_symbol_name("_intMode")
    1814                      .dwattr $C$DW$163, DW_AT_type(*$C$DW$T$92)
    1815                      .dwattr $C$DW$163, DW_AT_location[DW_OP_reg0]
    1816              
    1817              ;***************************************************************
    1818              ;* FNAME: _PWM_setIntMode               FR SIZE:   0           *
    1819              ;*                                                             *
    1820              ;* FUNCTION ENVIRONMENT                                        *
    1821              ;*                                                             *
    1822              ;* FUNCTION PROPERTIES                                         *
    1823              ;*                            0 Parameter,  0 Auto,  0 SOE     *
    1824              ;***************************************************************
    1825              
    1826              _PWM_setIntMode:
    1827              ;* AR4   assigned to _pwmHandle
    1828              $C$DW$164       .dwtag  DW_TAG_variable, DW_AT_name("pwmHandle")
    1829                      .dwattr $C$DW$164, DW_AT_TI_symbol_name("_pwmHandle")
    1830                      .dwattr $C$DW$164, DW_AT_type(*$C$DW$T$127)
    1831                      .dwattr $C$DW$164, DW_AT_location[DW_OP_reg12]
TMS320C2000 Assembler PC v6.2.3 Mon Aug 03 18:20:51 2015

Tools Copyright (c) 1996-2013 Texas Instruments Incorporated
C:\Users\a0220341\AppData\Local\Temp\3112010                         PAGE   35

    1832              ;* AL    assigned to _intMode
    1833              $C$DW$165       .dwtag  DW_TAG_variable, DW_AT_name("intMode")
    1834                      .dwattr $C$DW$165, DW_AT_TI_symbol_name("_intMode")
    1835                      .dwattr $C$DW$165, DW_AT_type(*$C$DW$T$92)
    1836                      .dwattr $C$DW$165, DW_AT_location[DW_OP_reg0]
    1837                      .dwcfi  cfa_offset, -2
    1838                      .dwcfi  save_reg_to_mem, 26, 0
    1839                      .dwcfi  save_reg_to_reg, 78, 26
    1840                      .dwpsn  file "D:/victor TI/Customer issue/Zero/4inOne/Code/sw/drivers/pwm/src/32b/f28x/f2802x/pwm.c",
    1841 000000d1 83A4          MOVL      XAR5,XAR4             ; [CPU_] |1196| 
    1842 000000d2 DD19          ADDB      XAR5,#25              ; [CPU_] |1196| 
    1843 000000d3 18C5          AND       *+XAR5[0],#0xfff8     ; [CPU_] |1196| 
         000000d4 FFF8 
    1844                      .dwpsn  file "D:/victor TI/Customer issue/Zero/4inOne/Code/sw/drivers/pwm/src/32b/f28x/f2802x/pwm.c",
    1845 000000d5 DC19          ADDB      XAR4,#25              ; [CPU_] |1199| 
    1846 000000d6 98C4          OR        *+XAR4[0],AL          ; [CPU_] |1199| 
    1847              $C$DW$166       .dwtag  DW_TAG_TI_branch
    1848                      .dwattr $C$DW$166, DW_AT_low_pc(0x00)
    1849                      .dwattr $C$DW$166, DW_AT_TI_return
    1850 000000d7 0006          LRETR     ; [CPU_] 
    1851                      ; return occurs ; [] 
    1852                      .dwattr $C$DW$161, DW_AT_TI_end_file("D:/victor TI/Customer issue/Zero/4inOne/Code/sw/drivers/pwm/src
    1853                      .dwattr $C$DW$161, DW_AT_TI_end_line(0x4b2)
    1854                      .dwattr $C$DW$161, DW_AT_TI_end_column(0x01)
    1855                      .dwendentry
    1856                      .dwendtag $C$DW$161
    1857              
    1858 000000d8               .sect   ".text"
    1859                      .global _PWM_setHrShadowMode
    1860              
    1861              $C$DW$167       .dwtag  DW_TAG_subprogram, DW_AT_name("PWM_setHrShadowMode")
    1862                      .dwattr $C$DW$167, DW_AT_low_pc(_PWM_setHrShadowMode)
    1863                      .dwattr $C$DW$167, DW_AT_high_pc(0x00)
    1864                      .dwattr $C$DW$167, DW_AT_TI_symbol_name("_PWM_setHrShadowMode")
    1865                      .dwattr $C$DW$167, DW_AT_external
    1866                      .dwattr $C$DW$167, DW_AT_TI_begin_file("D:/victor TI/Customer issue/Zero/4inOne/Code/sw/drivers/pwm/s
    1867                      .dwattr $C$DW$167, DW_AT_TI_begin_line(0x24e)
    1868                      .dwattr $C$DW$167, DW_AT_TI_begin_column(0x06)
    1869                      .dwattr $C$DW$167, DW_AT_TI_max_frame_size(-2)
    1870                      .dwpsn  file "D:/victor TI/Customer issue/Zero/4inOne/Code/sw/drivers/pwm/src/32b/f28x/f2802x/pwm.c",
    1871              
    1872                      .dwfde $C$DW$CIE, _PWM_setHrShadowMode
    1873              $C$DW$168       .dwtag  DW_TAG_formal_parameter, DW_AT_name("pwmHandle")
    1874                      .dwattr $C$DW$168, DW_AT_TI_symbol_name("_pwmHandle")
    1875                      .dwattr $C$DW$168, DW_AT_type(*$C$DW$T$33)
    1876                      .dwattr $C$DW$168, DW_AT_location[DW_OP_reg12]
    1877              $C$DW$169       .dwtag  DW_TAG_formal_parameter, DW_AT_name("shadowMode")
    1878                      .dwattr $C$DW$169, DW_AT_TI_symbol_name("_shadowMode")
    1879                      .dwattr $C$DW$169, DW_AT_type(*$C$DW$T$44)
    1880                      .dwattr $C$DW$169, DW_AT_location[DW_OP_reg0]
    1881              
    1882              ;***************************************************************
    1883              ;* FNAME: _PWM_setHrShadowMode          FR SIZE:   0           *
    1884              ;*                                                             *
    1885              ;* FUNCTION ENVIRONMENT                                        *
TMS320C2000 Assembler PC v6.2.3 Mon Aug 03 18:20:51 2015

Tools Copyright (c) 1996-2013 Texas Instruments Incorporated
C:\Users\a0220341\AppData\Local\Temp\3112010                         PAGE   36

    1886              ;*                                                             *
    1887              ;* FUNCTION PROPERTIES                                         *
    1888              ;*                            0 Parameter,  0 Auto,  0 SOE     *
    1889              ;***************************************************************
    1890              
    1891              _PWM_setHrShadowMode:
    1892              ;* AR4   assigned to _pwmHandle
    1893              $C$DW$170       .dwtag  DW_TAG_variable, DW_AT_name("pwmHandle")
    1894                      .dwattr $C$DW$170, DW_AT_TI_symbol_name("_pwmHandle")
    1895                      .dwattr $C$DW$170, DW_AT_type(*$C$DW$T$127)
    1896                      .dwattr $C$DW$170, DW_AT_location[DW_OP_reg12]
    1897              ;* AL    assigned to _shadowMode
    1898              $C$DW$171       .dwtag  DW_TAG_variable, DW_AT_name("shadowMode")
    1899                      .dwattr $C$DW$171, DW_AT_TI_symbol_name("_shadowMode")
    1900                      .dwattr $C$DW$171, DW_AT_type(*$C$DW$T$44)
    1901                      .dwattr $C$DW$171, DW_AT_location[DW_OP_reg0]
    1902                      .dwcfi  cfa_offset, -2
    1903                      .dwcfi  save_reg_to_mem, 26, 0
    1904                      .dwcfi  save_reg_to_reg, 78, 26
    1905 000000d8 7622   EALLOW
    1906                      .dwpsn  file "D:/victor TI/Customer issue/Zero/4inOne/Code/sw/drivers/pwm/src/32b/f28x/f2802x/pwm.c",
    1907 000000d9 83A4          MOVL      XAR5,XAR4             ; [CPU_] |596| 
    1908                      .dwpsn  file "D:/victor TI/Customer issue/Zero/4inOne/Code/sw/drivers/pwm/src/32b/f28x/f2802x/pwm.c",
    1909 000000da DC20          ADDB      XAR4,#32              ; [CPU_] |598| 
    1910                      .dwpsn  file "D:/victor TI/Customer issue/Zero/4inOne/Code/sw/drivers/pwm/src/32b/f28x/f2802x/pwm.c",
    1911 000000db DD20          ADDB      XAR5,#32              ; [CPU_] |596| 
    1912 000000dc 18C5          AND       *+XAR5[0],#0xffe7     ; [CPU_] |596| 
         000000dd FFE7 
    1913                      .dwpsn  file "D:/victor TI/Customer issue/Zero/4inOne/Code/sw/drivers/pwm/src/32b/f28x/f2802x/pwm.c",
    1914 000000de 98C4          OR        *+XAR4[0],AL          ; [CPU_] |598| 
    1915 000000df 761A   EDIS
    1916 000000e0 FF69          SPM       #0                    ; [CPU_] 
    1917              $C$DW$172       .dwtag  DW_TAG_TI_branch
    1918                      .dwattr $C$DW$172, DW_AT_low_pc(0x00)
    1919                      .dwattr $C$DW$172, DW_AT_TI_return
    1920 000000e1 0006          LRETR     ; [CPU_] 
    1921                      ; return occurs ; [] 
    1922                      .dwattr $C$DW$167, DW_AT_TI_end_file("D:/victor TI/Customer issue/Zero/4inOne/Code/sw/drivers/pwm/src
    1923                      .dwattr $C$DW$167, DW_AT_TI_end_line(0x25b)
    1924                      .dwattr $C$DW$167, DW_AT_TI_end_column(0x01)
    1925                      .dwendentry
    1926                      .dwendtag $C$DW$167
    1927              
    1928 000000e2               .sect   ".text"
    1929                      .global _PWM_setHrEdgeMode
    1930              
    1931              $C$DW$173       .dwtag  DW_TAG_subprogram, DW_AT_name("PWM_setHrEdgeMode")
    1932                      .dwattr $C$DW$173, DW_AT_low_pc(_PWM_setHrEdgeMode)
    1933                      .dwattr $C$DW$173, DW_AT_high_pc(0x00)
    1934                      .dwattr $C$DW$173, DW_AT_TI_symbol_name("_PWM_setHrEdgeMode")
    1935                      .dwattr $C$DW$173, DW_AT_external
    1936                      .dwattr $C$DW$173, DW_AT_TI_begin_file("D:/victor TI/Customer issue/Zero/4inOne/Code/sw/drivers/pwm/s
    1937                      .dwattr $C$DW$173, DW_AT_TI_begin_line(0x23e)
    1938                      .dwattr $C$DW$173, DW_AT_TI_begin_column(0x06)
    1939                      .dwattr $C$DW$173, DW_AT_TI_max_frame_size(-2)
TMS320C2000 Assembler PC v6.2.3 Mon Aug 03 18:20:51 2015

Tools Copyright (c) 1996-2013 Texas Instruments Incorporated
C:\Users\a0220341\AppData\Local\Temp\3112010                         PAGE   37

    1940                      .dwpsn  file "D:/victor TI/Customer issue/Zero/4inOne/Code/sw/drivers/pwm/src/32b/f28x/f2802x/pwm.c",
    1941              
    1942                      .dwfde $C$DW$CIE, _PWM_setHrEdgeMode
    1943              $C$DW$174       .dwtag  DW_TAG_formal_parameter, DW_AT_name("pwmHandle")
    1944                      .dwattr $C$DW$174, DW_AT_TI_symbol_name("_pwmHandle")
    1945                      .dwattr $C$DW$174, DW_AT_type(*$C$DW$T$33)
    1946                      .dwattr $C$DW$174, DW_AT_location[DW_OP_reg12]
    1947              $C$DW$175       .dwtag  DW_TAG_formal_parameter, DW_AT_name("edgeMode")
    1948                      .dwattr $C$DW$175, DW_AT_TI_symbol_name("_edgeMode")
    1949                      .dwattr $C$DW$175, DW_AT_type(*$C$DW$T$41)
    1950                      .dwattr $C$DW$175, DW_AT_location[DW_OP_reg0]
    1951              
    1952              ;***************************************************************
    1953              ;* FNAME: _PWM_setHrEdgeMode            FR SIZE:   0           *
    1954              ;*                                                             *
    1955              ;* FUNCTION ENVIRONMENT                                        *
    1956              ;*                                                             *
    1957              ;* FUNCTION PROPERTIES                                         *
    1958              ;*                            0 Parameter,  0 Auto,  0 SOE     *
    1959              ;***************************************************************
    1960              
    1961              _PWM_setHrEdgeMode:
    1962              ;* AR4   assigned to _pwmHandle
    1963              $C$DW$176       .dwtag  DW_TAG_variable, DW_AT_name("pwmHandle")
    1964                      .dwattr $C$DW$176, DW_AT_TI_symbol_name("_pwmHandle")
    1965                      .dwattr $C$DW$176, DW_AT_type(*$C$DW$T$127)
    1966                      .dwattr $C$DW$176, DW_AT_location[DW_OP_reg12]
    1967              ;* AL    assigned to _edgeMode
    1968              $C$DW$177       .dwtag  DW_TAG_variable, DW_AT_name("edgeMode")
    1969                      .dwattr $C$DW$177, DW_AT_TI_symbol_name("_edgeMode")
    1970                      .dwattr $C$DW$177, DW_AT_type(*$C$DW$T$41)
    1971                      .dwattr $C$DW$177, DW_AT_location[DW_OP_reg0]
    1972                      .dwcfi  cfa_offset, -2
    1973                      .dwcfi  save_reg_to_mem, 26, 0
    1974                      .dwcfi  save_reg_to_reg, 78, 26
    1975 000000e2 7622   EALLOW
    1976                      .dwpsn  file "D:/victor TI/Customer issue/Zero/4inOne/Code/sw/drivers/pwm/src/32b/f28x/f2802x/pwm.c",
    1977 000000e3 83A4          MOVL      XAR5,XAR4             ; [CPU_] |580| 
    1978                      .dwpsn  file "D:/victor TI/Customer issue/Zero/4inOne/Code/sw/drivers/pwm/src/32b/f28x/f2802x/pwm.c",
    1979 000000e4 DC20          ADDB      XAR4,#32              ; [CPU_] |582| 
    1980                      .dwpsn  file "D:/victor TI/Customer issue/Zero/4inOne/Code/sw/drivers/pwm/src/32b/f28x/f2802x/pwm.c",
    1981 000000e5 DD20          ADDB      XAR5,#32              ; [CPU_] |580| 
    1982 000000e6 18C5          AND       *+XAR5[0],#0xfffc     ; [CPU_] |580| 
         000000e7 FFFC 
    1983                      .dwpsn  file "D:/victor TI/Customer issue/Zero/4inOne/Code/sw/drivers/pwm/src/32b/f28x/f2802x/pwm.c",
    1984 000000e8 98C4          OR        *+XAR4[0],AL          ; [CPU_] |582| 
    1985 000000e9 761A   EDIS
    1986 000000ea FF69          SPM       #0                    ; [CPU_] 
    1987              $C$DW$178       .dwtag  DW_TAG_TI_branch
    1988                      .dwattr $C$DW$178, DW_AT_low_pc(0x00)
    1989                      .dwattr $C$DW$178, DW_AT_TI_return
    1990 000000eb 0006          LRETR     ; [CPU_] 
    1991                      ; return occurs ; [] 
    1992                      .dwattr $C$DW$173, DW_AT_TI_end_file("D:/victor TI/Customer issue/Zero/4inOne/Code/sw/drivers/pwm/src
    1993                      .dwattr $C$DW$173, DW_AT_TI_end_line(0x24b)
TMS320C2000 Assembler PC v6.2.3 Mon Aug 03 18:20:51 2015

Tools Copyright (c) 1996-2013 Texas Instruments Incorporated
C:\Users\a0220341\AppData\Local\Temp\3112010                         PAGE   38

    1994                      .dwattr $C$DW$173, DW_AT_TI_end_column(0x01)
    1995                      .dwendentry
    1996                      .dwendtag $C$DW$173
    1997              
    1998 000000ec               .sect   ".text"
    1999                      .global _PWM_setHrControlMode
    2000              
    2001              $C$DW$179       .dwtag  DW_TAG_subprogram, DW_AT_name("PWM_setHrControlMode")
    2002                      .dwattr $C$DW$179, DW_AT_low_pc(_PWM_setHrControlMode)
    2003                      .dwattr $C$DW$179, DW_AT_high_pc(0x00)
    2004                      .dwattr $C$DW$179, DW_AT_TI_symbol_name("_PWM_setHrControlMode")
    2005                      .dwattr $C$DW$179, DW_AT_external
    2006                      .dwattr $C$DW$179, DW_AT_TI_begin_file("D:/victor TI/Customer issue/Zero/4inOne/Code/sw/drivers/pwm/s
    2007                      .dwattr $C$DW$179, DW_AT_TI_begin_line(0x22e)
    2008                      .dwattr $C$DW$179, DW_AT_TI_begin_column(0x06)
    2009                      .dwattr $C$DW$179, DW_AT_TI_max_frame_size(-2)
    2010                      .dwpsn  file "D:/victor TI/Customer issue/Zero/4inOne/Code/sw/drivers/pwm/src/32b/f28x/f2802x/pwm.c",
    2011              
    2012                      .dwfde $C$DW$CIE, _PWM_setHrControlMode
    2013              $C$DW$180       .dwtag  DW_TAG_formal_parameter, DW_AT_name("pwmHandle")
    2014                      .dwattr $C$DW$180, DW_AT_TI_symbol_name("_pwmHandle")
    2015                      .dwattr $C$DW$180, DW_AT_type(*$C$DW$T$33)
    2016                      .dwattr $C$DW$180, DW_AT_location[DW_OP_reg12]
    2017              $C$DW$181       .dwtag  DW_TAG_formal_parameter, DW_AT_name("controlMode")
    2018                      .dwattr $C$DW$181, DW_AT_TI_symbol_name("_controlMode")
    2019                      .dwattr $C$DW$181, DW_AT_type(*$C$DW$T$38)
    2020                      .dwattr $C$DW$181, DW_AT_location[DW_OP_reg0]
    2021              
    2022              ;***************************************************************
    2023              ;* FNAME: _PWM_setHrControlMode         FR SIZE:   0           *
    2024              ;*                                                             *
    2025              ;* FUNCTION ENVIRONMENT                                        *
    2026              ;*                                                             *
    2027              ;* FUNCTION PROPERTIES                                         *
    2028              ;*                            0 Parameter,  0 Auto,  0 SOE     *
    2029              ;***************************************************************
    2030              
    2031              _PWM_setHrControlMode:
    2032              ;* AR4   assigned to _pwmHandle
    2033              $C$DW$182       .dwtag  DW_TAG_variable, DW_AT_name("pwmHandle")
    2034                      .dwattr $C$DW$182, DW_AT_TI_symbol_name("_pwmHandle")
    2035                      .dwattr $C$DW$182, DW_AT_type(*$C$DW$T$127)
    2036                      .dwattr $C$DW$182, DW_AT_location[DW_OP_reg12]
    2037              ;* AL    assigned to _controlMode
    2038              $C$DW$183       .dwtag  DW_TAG_variable, DW_AT_name("controlMode")
    2039                      .dwattr $C$DW$183, DW_AT_TI_symbol_name("_controlMode")
    2040                      .dwattr $C$DW$183, DW_AT_type(*$C$DW$T$38)
    2041                      .dwattr $C$DW$183, DW_AT_location[DW_OP_reg0]
    2042                      .dwcfi  cfa_offset, -2
    2043                      .dwcfi  save_reg_to_mem, 26, 0
    2044                      .dwcfi  save_reg_to_reg, 78, 26
    2045 000000ec 7622   EALLOW
    2046                      .dwpsn  file "D:/victor TI/Customer issue/Zero/4inOne/Code/sw/drivers/pwm/src/32b/f28x/f2802x/pwm.c",
    2047 000000ed 83A4          MOVL      XAR5,XAR4             ; [CPU_] |564| 
    2048                      .dwpsn  file "D:/victor TI/Customer issue/Zero/4inOne/Code/sw/drivers/pwm/src/32b/f28x/f2802x/pwm.c",
TMS320C2000 Assembler PC v6.2.3 Mon Aug 03 18:20:51 2015

Tools Copyright (c) 1996-2013 Texas Instruments Incorporated
C:\Users\a0220341\AppData\Local\Temp\3112010                         PAGE   39

    2049 000000ee DC20          ADDB      XAR4,#32              ; [CPU_] |566| 
    2050                      .dwpsn  file "D:/victor TI/Customer issue/Zero/4inOne/Code/sw/drivers/pwm/src/32b/f28x/f2802x/pwm.c",
    2051 000000ef DD20          ADDB      XAR5,#32              ; [CPU_] |564| 
    2052 000000f0 18C5          AND       *+XAR5[0],#0xfffb     ; [CPU_] |564| 
         000000f1 FFFB 
    2053                      .dwpsn  file "D:/victor TI/Customer issue/Zero/4inOne/Code/sw/drivers/pwm/src/32b/f28x/f2802x/pwm.c",
    2054 000000f2 98C4          OR        *+XAR4[0],AL          ; [CPU_] |566| 
    2055 000000f3 761A   EDIS
    2056 000000f4 FF69          SPM       #0                    ; [CPU_] 
    2057              $C$DW$184       .dwtag  DW_TAG_TI_branch
    2058                      .dwattr $C$DW$184, DW_AT_low_pc(0x00)
    2059                      .dwattr $C$DW$184, DW_AT_TI_return
    2060 000000f5 0006          LRETR     ; [CPU_] 
    2061                      ; return occurs ; [] 
    2062                      .dwattr $C$DW$179, DW_AT_TI_end_file("D:/victor TI/Customer issue/Zero/4inOne/Code/sw/drivers/pwm/src
    2063                      .dwattr $C$DW$179, DW_AT_TI_end_line(0x23b)
    2064                      .dwattr $C$DW$179, DW_AT_TI_end_column(0x01)
    2065                      .dwendentry
    2066                      .dwendtag $C$DW$179
    2067              
    2068 000000f6               .sect   ".text"
    2069                      .global _PWM_setHighSpeedClkDiv
    2070              
    2071              $C$DW$185       .dwtag  DW_TAG_subprogram, DW_AT_name("PWM_setHighSpeedClkDiv")
    2072                      .dwattr $C$DW$185, DW_AT_low_pc(_PWM_setHighSpeedClkDiv)
    2073                      .dwattr $C$DW$185, DW_AT_high_pc(0x00)
    2074                      .dwattr $C$DW$185, DW_AT_TI_symbol_name("_PWM_setHighSpeedClkDiv")
    2075                      .dwattr $C$DW$185, DW_AT_external
    2076                      .dwattr $C$DW$185, DW_AT_TI_begin_file("D:/victor TI/Customer issue/Zero/4inOne/Code/sw/drivers/pwm/s
    2077                      .dwattr $C$DW$185, DW_AT_TI_begin_line(0x497)
    2078                      .dwattr $C$DW$185, DW_AT_TI_begin_column(0x06)
    2079                      .dwattr $C$DW$185, DW_AT_TI_max_frame_size(-2)
    2080                      .dwpsn  file "D:/victor TI/Customer issue/Zero/4inOne/Code/sw/drivers/pwm/src/32b/f28x/f2802x/pwm.c",
    2081              
    2082                      .dwfde $C$DW$CIE, _PWM_setHighSpeedClkDiv
    2083              $C$DW$186       .dwtag  DW_TAG_formal_parameter, DW_AT_name("pwmHandle")
    2084                      .dwattr $C$DW$186, DW_AT_TI_symbol_name("_pwmHandle")
    2085                      .dwattr $C$DW$186, DW_AT_type(*$C$DW$T$33)
    2086                      .dwattr $C$DW$186, DW_AT_location[DW_OP_reg12]
    2087              $C$DW$187       .dwtag  DW_TAG_formal_parameter, DW_AT_name("clkDiv")
    2088                      .dwattr $C$DW$187, DW_AT_TI_symbol_name("_clkDiv")
    2089                      .dwattr $C$DW$187, DW_AT_type(*$C$DW$T$89)
    2090                      .dwattr $C$DW$187, DW_AT_location[DW_OP_reg0]
    2091              
    2092              ;***************************************************************
    2093              ;* FNAME: _PWM_setHighSpeedClkDiv       FR SIZE:   0           *
    2094              ;*                                                             *
    2095              ;* FUNCTION ENVIRONMENT                                        *
    2096              ;*                                                             *
    2097              ;* FUNCTION PROPERTIES                                         *
    2098              ;*                            0 Parameter,  0 Auto,  0 SOE     *
    2099              ;***************************************************************
    2100              
    2101              _PWM_setHighSpeedClkDiv:
    2102              ;* AR4   assigned to _pwmHandle
TMS320C2000 Assembler PC v6.2.3 Mon Aug 03 18:20:51 2015

Tools Copyright (c) 1996-2013 Texas Instruments Incorporated
C:\Users\a0220341\AppData\Local\Temp\3112010                         PAGE   40

    2103              $C$DW$188       .dwtag  DW_TAG_variable, DW_AT_name("pwmHandle")
    2104                      .dwattr $C$DW$188, DW_AT_TI_symbol_name("_pwmHandle")
    2105                      .dwattr $C$DW$188, DW_AT_type(*$C$DW$T$127)
    2106                      .dwattr $C$DW$188, DW_AT_location[DW_OP_reg12]
    2107              ;* AL    assigned to _clkDiv
    2108              $C$DW$189       .dwtag  DW_TAG_variable, DW_AT_name("clkDiv")
    2109                      .dwattr $C$DW$189, DW_AT_TI_symbol_name("_clkDiv")
    2110                      .dwattr $C$DW$189, DW_AT_type(*$C$DW$T$89)
    2111                      .dwattr $C$DW$189, DW_AT_location[DW_OP_reg0]
    2112                      .dwcfi  cfa_offset, -2
    2113                      .dwcfi  save_reg_to_mem, 26, 0
    2114                      .dwcfi  save_reg_to_reg, 78, 26
    2115                      .dwpsn  file "D:/victor TI/Customer issue/Zero/4inOne/Code/sw/drivers/pwm/src/32b/f28x/f2802x/pwm.c",
    2116 000000f6 18C4          AND       *+XAR4[0],#0xfc7f     ; [CPU_] |1181| 
         000000f7 FC7F 
    2117                      .dwpsn  file "D:/victor TI/Customer issue/Zero/4inOne/Code/sw/drivers/pwm/src/32b/f28x/f2802x/pwm.c",
    2118 000000f8 98C4          OR        *+XAR4[0],AL          ; [CPU_] |1184| 
    2119              $C$DW$190       .dwtag  DW_TAG_TI_branch
    2120                      .dwattr $C$DW$190, DW_AT_low_pc(0x00)
    2121                      .dwattr $C$DW$190, DW_AT_TI_return
    2122 000000f9 0006          LRETR     ; [CPU_] 
    2123                      ; return occurs ; [] 
    2124                      .dwattr $C$DW$185, DW_AT_TI_end_file("D:/victor TI/Customer issue/Zero/4inOne/Code/sw/drivers/pwm/src
    2125                      .dwattr $C$DW$185, DW_AT_TI_end_line(0x4a3)
    2126                      .dwattr $C$DW$185, DW_AT_TI_end_column(0x01)
    2127                      .dwendentry
    2128                      .dwendtag $C$DW$185
    2129              
    2130 000000fa               .sect   ".text"
    2131                      .global _PWM_setDigitalCompareInput
    2132              
    2133              $C$DW$191       .dwtag  DW_TAG_subprogram, DW_AT_name("PWM_setDigitalCompareInput")
    2134                      .dwattr $C$DW$191, DW_AT_low_pc(_PWM_setDigitalCompareInput)
    2135                      .dwattr $C$DW$191, DW_AT_high_pc(0x00)
    2136                      .dwattr $C$DW$191, DW_AT_TI_symbol_name("_PWM_setDigitalCompareInput")
    2137                      .dwattr $C$DW$191, DW_AT_external
    2138                      .dwattr $C$DW$191, DW_AT_TI_begin_file("D:/victor TI/Customer issue/Zero/4inOne/Code/sw/drivers/pwm/s
    2139                      .dwattr $C$DW$191, DW_AT_TI_begin_line(0x42f)
    2140                      .dwattr $C$DW$191, DW_AT_TI_begin_column(0x06)
    2141                      .dwattr $C$DW$191, DW_AT_TI_max_frame_size(-2)
    2142                      .dwpsn  file "D:/victor TI/Customer issue/Zero/4inOne/Code/sw/drivers/pwm/src/32b/f28x/f2802x/pwm.c",
    2143              
    2144                      .dwfde $C$DW$CIE, _PWM_setDigitalCompareInput
    2145              $C$DW$192       .dwtag  DW_TAG_formal_parameter, DW_AT_name("pwmHandle")
    2146                      .dwattr $C$DW$192, DW_AT_TI_symbol_name("_pwmHandle")
    2147                      .dwattr $C$DW$192, DW_AT_type(*$C$DW$T$33)
    2148                      .dwattr $C$DW$192, DW_AT_location[DW_OP_reg12]
    2149              $C$DW$193       .dwtag  DW_TAG_formal_parameter, DW_AT_name("input")
    2150                      .dwattr $C$DW$193, DW_AT_TI_symbol_name("_input")
    2151                      .dwattr $C$DW$193, DW_AT_type(*$C$DW$T$83)
    2152                      .dwattr $C$DW$193, DW_AT_location[DW_OP_reg0]
    2153              $C$DW$194       .dwtag  DW_TAG_formal_parameter, DW_AT_name("inputSel")
    2154                      .dwattr $C$DW$194, DW_AT_TI_symbol_name("_inputSel")
    2155                      .dwattr $C$DW$194, DW_AT_type(*$C$DW$T$86)
    2156                      .dwattr $C$DW$194, DW_AT_location[DW_OP_reg1]
TMS320C2000 Assembler PC v6.2.3 Mon Aug 03 18:20:51 2015

Tools Copyright (c) 1996-2013 Texas Instruments Incorporated
C:\Users\a0220341\AppData\Local\Temp\3112010                         PAGE   41

    2157              
    2158              ;***************************************************************
    2159              ;* FNAME: _PWM_setDigitalCompareInput   FR SIZE:   0           *
    2160              ;*                                                             *
    2161              ;* FUNCTION ENVIRONMENT                                        *
    2162              ;*                                                             *
    2163              ;* FUNCTION PROPERTIES                                         *
    2164              ;*                            0 Parameter,  0 Auto,  0 SOE     *
    2165              ;***************************************************************
    2166              
    2167              _PWM_setDigitalCompareInput:
    2168              ;* AR4   assigned to _pwmHandle
    2169              $C$DW$195       .dwtag  DW_TAG_variable, DW_AT_name("pwmHandle")
    2170                      .dwattr $C$DW$195, DW_AT_TI_symbol_name("_pwmHandle")
    2171                      .dwattr $C$DW$195, DW_AT_type(*$C$DW$T$127)
    2172                      .dwattr $C$DW$195, DW_AT_location[DW_OP_reg12]
    2173              ;* T     assigned to _input
    2174              $C$DW$196       .dwtag  DW_TAG_variable, DW_AT_name("input")
    2175                      .dwattr $C$DW$196, DW_AT_TI_symbol_name("_input")
    2176                      .dwattr $C$DW$196, DW_AT_type(*$C$DW$T$83)
    2177                      .dwattr $C$DW$196, DW_AT_location[DW_OP_reg22]
    2178              ;* AH    assigned to _inputSel
    2179              $C$DW$197       .dwtag  DW_TAG_variable, DW_AT_name("inputSel")
    2180                      .dwattr $C$DW$197, DW_AT_TI_symbol_name("_inputSel")
    2181                      .dwattr $C$DW$197, DW_AT_type(*$C$DW$T$86)
    2182                      .dwattr $C$DW$197, DW_AT_location[DW_OP_reg1]
    2183                      .dwcfi  cfa_offset, -2
    2184                      .dwcfi  save_reg_to_mem, 26, 0
    2185                      .dwcfi  save_reg_to_reg, 78, 26
    2186 000000fa 2DA9          MOV       T,AL                  ; [CPU_] |1074| 
    2187 000000fb 7622   EALLOW
    2188                      .dwpsn  file "D:/victor TI/Customer issue/Zero/4inOne/Code/sw/drivers/pwm/src/32b/f28x/f2802x/pwm.c",
    2189 000000fc 83A4          MOVL      XAR5,XAR4             ; [CPU_] |1080| 
    2190 000000fd 9A0F          MOVB      AL,#15                ; [CPU_] |1080| 
    2191 000000fe FF66          LSL       AL,T                  ; [CPU_] |1080| 
    2192                      .dwpsn  file "D:/victor TI/Customer issue/Zero/4inOne/Code/sw/drivers/pwm/src/32b/f28x/f2802x/pwm.c",
    2193 000000ff DC30          ADDB      XAR4,#48              ; [CPU_] |1083| 
    2194                      .dwpsn  file "D:/victor TI/Customer issue/Zero/4inOne/Code/sw/drivers/pwm/src/32b/f28x/f2802x/pwm.c",
    2195 00000100 FF5E          NOT       AL                    ; [CPU_] |1080| 
    2196 00000101 DD30          ADDB      XAR5,#48              ; [CPU_] |1080| 
    2197 00000102 C0C5          AND       *+XAR5[0],AL          ; [CPU_] |1080| 
    2198                      .dwpsn  file "D:/victor TI/Customer issue/Zero/4inOne/Code/sw/drivers/pwm/src/32b/f28x/f2802x/pwm.c",
    2199 00000103 92A8          MOV       AL,AH                 ; [CPU_] |1083| 
    2200 00000104 FF66          LSL       AL,T                  ; [CPU_] |1083| 
    2201 00000105 98C4          OR        *+XAR4[0],AL          ; [CPU_] |1083| 
    2202 00000106 761A   EDIS
    2203 00000107 FF69          SPM       #0                    ; [CPU_] 
    2204              $C$DW$198       .dwtag  DW_TAG_TI_branch
    2205                      .dwattr $C$DW$198, DW_AT_low_pc(0x00)
    2206                      .dwattr $C$DW$198, DW_AT_TI_return
    2207 00000108 0006          LRETR     ; [CPU_] 
    2208                      ; return occurs ; [] 
    2209                      .dwattr $C$DW$191, DW_AT_TI_end_file("D:/victor TI/Customer issue/Zero/4inOne/Code/sw/drivers/pwm/src
    2210                      .dwattr $C$DW$191, DW_AT_TI_end_line(0x440)
    2211                      .dwattr $C$DW$191, DW_AT_TI_end_column(0x01)
TMS320C2000 Assembler PC v6.2.3 Mon Aug 03 18:20:51 2015

Tools Copyright (c) 1996-2013 Texas Instruments Incorporated
C:\Users\a0220341\AppData\Local\Temp\3112010                         PAGE   42

    2212                      .dwendentry
    2213                      .dwendtag $C$DW$191
    2214              
    2215 00000109               .sect   ".text"
    2216                      .global _PWM_setDigitalCompareFilterWindow
    2217              
    2218              $C$DW$199       .dwtag  DW_TAG_subprogram, DW_AT_name("PWM_setDigitalCompareFilterWindow")
    2219                      .dwattr $C$DW$199, DW_AT_low_pc(_PWM_setDigitalCompareFilterWindow)
    2220                      .dwattr $C$DW$199, DW_AT_high_pc(0x00)
    2221                      .dwattr $C$DW$199, DW_AT_TI_symbol_name("_PWM_setDigitalCompareFilterWindow")
    2222                      .dwattr $C$DW$199, DW_AT_external
    2223                      .dwattr $C$DW$199, DW_AT_TI_begin_file("D:/victor TI/Customer issue/Zero/4inOne/Code/sw/drivers/pwm/s
    2224                      .dwattr $C$DW$199, DW_AT_TI_begin_line(0x423)
    2225                      .dwattr $C$DW$199, DW_AT_TI_begin_column(0x06)
    2226                      .dwattr $C$DW$199, DW_AT_TI_max_frame_size(-2)
    2227                      .dwpsn  file "D:/victor TI/Customer issue/Zero/4inOne/Code/sw/drivers/pwm/src/32b/f28x/f2802x/pwm.c",
    2228              
    2229                      .dwfde $C$DW$CIE, _PWM_setDigitalCompareFilterWindow
    2230              $C$DW$200       .dwtag  DW_TAG_formal_parameter, DW_AT_name("pwmHandle")
    2231                      .dwattr $C$DW$200, DW_AT_TI_symbol_name("_pwmHandle")
    2232                      .dwattr $C$DW$200, DW_AT_type(*$C$DW$T$33)
    2233                      .dwattr $C$DW$200, DW_AT_location[DW_OP_reg12]
    2234              $C$DW$201       .dwtag  DW_TAG_formal_parameter, DW_AT_name("window")
    2235                      .dwattr $C$DW$201, DW_AT_TI_symbol_name("_window")
    2236                      .dwattr $C$DW$201, DW_AT_type(*$C$DW$T$146)
    2237                      .dwattr $C$DW$201, DW_AT_location[DW_OP_reg0]
    2238              
    2239              ;***************************************************************
    2240              ;* FNAME: _PWM_setDigitalCompareFilterWindow FR SIZE:   0           *
    2241              ;*                                                             *
    2242              ;* FUNCTION ENVIRONMENT                                        *
    2243              ;*                                                             *
    2244              ;* FUNCTION PROPERTIES                                         *
    2245              ;*                            0 Parameter,  0 Auto,  0 SOE     *
    2246              ;***************************************************************
    2247              
    2248              _PWM_setDigitalCompareFilterWindow:
    2249              ;* AR4   assigned to _pwmHandle
    2250              $C$DW$202       .dwtag  DW_TAG_variable, DW_AT_name("pwmHandle")
    2251                      .dwattr $C$DW$202, DW_AT_TI_symbol_name("_pwmHandle")
    2252                      .dwattr $C$DW$202, DW_AT_type(*$C$DW$T$127)
    2253                      .dwattr $C$DW$202, DW_AT_location[DW_OP_reg12]
    2254              ;* AL    assigned to _window
    2255              $C$DW$203       .dwtag  DW_TAG_variable, DW_AT_name("window")
    2256                      .dwattr $C$DW$203, DW_AT_TI_symbol_name("_window")
    2257                      .dwattr $C$DW$203, DW_AT_type(*$C$DW$T$146)
    2258                      .dwattr $C$DW$203, DW_AT_location[DW_OP_reg0]
    2259                      .dwcfi  cfa_offset, -2
    2260                      .dwcfi  save_reg_to_mem, 26, 0
    2261                      .dwcfi  save_reg_to_reg, 78, 26
    2262                      .dwpsn  file "D:/victor TI/Customer issue/Zero/4inOne/Code/sw/drivers/pwm/src/32b/f28x/f2802x/pwm.c",
    2263 00000109 D037          MOVB      XAR0,#55              ; [CPU_] |1065| 
    2264 0000010a 9694          MOV       *+XAR4[AR0],AL        ; [CPU_] |1065| 
    2265              $C$DW$204       .dwtag  DW_TAG_TI_branch
    2266                      .dwattr $C$DW$204, DW_AT_low_pc(0x00)
TMS320C2000 Assembler PC v6.2.3 Mon Aug 03 18:20:51 2015

Tools Copyright (c) 1996-2013 Texas Instruments Incorporated
C:\Users\a0220341\AppData\Local\Temp\3112010                         PAGE   43

    2267                      .dwattr $C$DW$204, DW_AT_TI_return
    2268 0000010b 0006          LRETR     ; [CPU_] 
    2269                      ; return occurs ; [] 
    2270                      .dwattr $C$DW$199, DW_AT_TI_end_file("D:/victor TI/Customer issue/Zero/4inOne/Code/sw/drivers/pwm/src
    2271                      .dwattr $C$DW$199, DW_AT_TI_end_line(0x42c)
    2272                      .dwattr $C$DW$199, DW_AT_TI_end_column(0x01)
    2273                      .dwendentry
    2274                      .dwendtag $C$DW$199
    2275              
    2276 0000010c               .sect   ".text"
    2277                      .global _PWM_setDigitalCompareFilterSource
    2278              
    2279              $C$DW$205       .dwtag  DW_TAG_subprogram, DW_AT_name("PWM_setDigitalCompareFilterSource")
    2280                      .dwattr $C$DW$205, DW_AT_low_pc(_PWM_setDigitalCompareFilterSource)
    2281                      .dwattr $C$DW$205, DW_AT_high_pc(0x00)
    2282                      .dwattr $C$DW$205, DW_AT_TI_symbol_name("_PWM_setDigitalCompareFilterSource")
    2283                      .dwattr $C$DW$205, DW_AT_external
    2284                      .dwattr $C$DW$205, DW_AT_TI_begin_file("D:/victor TI/Customer issue/Zero/4inOne/Code/sw/drivers/pwm/s
    2285                      .dwattr $C$DW$205, DW_AT_TI_begin_line(0x3f1)
    2286                      .dwattr $C$DW$205, DW_AT_TI_begin_column(0x06)
    2287                      .dwattr $C$DW$205, DW_AT_TI_max_frame_size(-2)
    2288                      .dwpsn  file "D:/victor TI/Customer issue/Zero/4inOne/Code/sw/drivers/pwm/src/32b/f28x/f2802x/pwm.c",
    2289              
    2290                      .dwfde $C$DW$CIE, _PWM_setDigitalCompareFilterSource
    2291              $C$DW$206       .dwtag  DW_TAG_formal_parameter, DW_AT_name("pwmHandle")
    2292                      .dwattr $C$DW$206, DW_AT_TI_symbol_name("_pwmHandle")
    2293                      .dwattr $C$DW$206, DW_AT_type(*$C$DW$T$33)
    2294                      .dwattr $C$DW$206, DW_AT_location[DW_OP_reg12]
    2295              $C$DW$207       .dwtag  DW_TAG_formal_parameter, DW_AT_name("input")
    2296                      .dwattr $C$DW$207, DW_AT_TI_symbol_name("_input")
    2297                      .dwattr $C$DW$207, DW_AT_type(*$C$DW$T$77)
    2298                      .dwattr $C$DW$207, DW_AT_location[DW_OP_reg0]
    2299              
    2300              ;***************************************************************
    2301              ;* FNAME: _PWM_setDigitalCompareFilterSource FR SIZE:   0           *
    2302              ;*                                                             *
    2303              ;* FUNCTION ENVIRONMENT                                        *
    2304              ;*                                                             *
    2305              ;* FUNCTION PROPERTIES                                         *
    2306              ;*                            0 Parameter,  0 Auto,  0 SOE     *
    2307              ;***************************************************************
    2308              
    2309              _PWM_setDigitalCompareFilterSource:
    2310              ;* AR4   assigned to _pwmHandle
    2311              $C$DW$208       .dwtag  DW_TAG_variable, DW_AT_name("pwmHandle")
    2312                      .dwattr $C$DW$208, DW_AT_TI_symbol_name("_pwmHandle")
    2313                      .dwattr $C$DW$208, DW_AT_type(*$C$DW$T$127)
    2314                      .dwattr $C$DW$208, DW_AT_location[DW_OP_reg12]
    2315              ;* AL    assigned to _input
    2316              $C$DW$209       .dwtag  DW_TAG_variable, DW_AT_name("input")
    2317                      .dwattr $C$DW$209, DW_AT_TI_symbol_name("_input")
    2318                      .dwattr $C$DW$209, DW_AT_type(*$C$DW$T$77)
    2319                      .dwattr $C$DW$209, DW_AT_location[DW_OP_reg0]
    2320                      .dwcfi  cfa_offset, -2
    2321                      .dwcfi  save_reg_to_mem, 26, 0
TMS320C2000 Assembler PC v6.2.3 Mon Aug 03 18:20:51 2015

Tools Copyright (c) 1996-2013 Texas Instruments Incorporated
C:\Users\a0220341\AppData\Local\Temp\3112010                         PAGE   44

    2322                      .dwcfi  save_reg_to_reg, 78, 26
    2323 0000010c 7622   EALLOW
    2324                      .dwpsn  file "D:/victor TI/Customer issue/Zero/4inOne/Code/sw/drivers/pwm/src/32b/f28x/f2802x/pwm.c",
    2325 0000010d 83A4          MOVL      XAR5,XAR4             ; [CPU_] |1017| 
    2326                      .dwpsn  file "D:/victor TI/Customer issue/Zero/4inOne/Code/sw/drivers/pwm/src/32b/f28x/f2802x/pwm.c",
    2327 0000010e DC33          ADDB      XAR4,#51              ; [CPU_] |1020| 
    2328                      .dwpsn  file "D:/victor TI/Customer issue/Zero/4inOne/Code/sw/drivers/pwm/src/32b/f28x/f2802x/pwm.c",
    2329 0000010f DD33          ADDB      XAR5,#51              ; [CPU_] |1017| 
    2330 00000110 18C5          AND       *+XAR5[0],#0xfffc     ; [CPU_] |1017| 
         00000111 FFFC 
    2331                      .dwpsn  file "D:/victor TI/Customer issue/Zero/4inOne/Code/sw/drivers/pwm/src/32b/f28x/f2802x/pwm.c",
    2332 00000112 98C4          OR        *+XAR4[0],AL          ; [CPU_] |1020| 
    2333 00000113 761A   EDIS
    2334 00000114 FF69          SPM       #0                    ; [CPU_] 
    2335              $C$DW$210       .dwtag  DW_TAG_TI_branch
    2336                      .dwattr $C$DW$210, DW_AT_low_pc(0x00)
    2337                      .dwattr $C$DW$210, DW_AT_TI_return
    2338 00000115 0006          LRETR     ; [CPU_] 
    2339                      ; return occurs ; [] 
    2340                      .dwattr $C$DW$205, DW_AT_TI_end_file("D:/victor TI/Customer issue/Zero/4inOne/Code/sw/drivers/pwm/src
    2341                      .dwattr $C$DW$205, DW_AT_TI_end_line(0x401)
    2342                      .dwattr $C$DW$205, DW_AT_TI_end_column(0x01)
    2343                      .dwendentry
    2344                      .dwendtag $C$DW$205
    2345              
    2346 00000116               .sect   ".text"
    2347                      .global _PWM_setDigitalCompareFilterOffset
    2348              
    2349              $C$DW$211       .dwtag  DW_TAG_subprogram, DW_AT_name("PWM_setDigitalCompareFilterOffset")
    2350                      .dwattr $C$DW$211, DW_AT_low_pc(_PWM_setDigitalCompareFilterOffset)
    2351                      .dwattr $C$DW$211, DW_AT_high_pc(0x00)
    2352                      .dwattr $C$DW$211, DW_AT_TI_symbol_name("_PWM_setDigitalCompareFilterOffset")
    2353                      .dwattr $C$DW$211, DW_AT_external
    2354                      .dwattr $C$DW$211, DW_AT_TI_begin_file("D:/victor TI/Customer issue/Zero/4inOne/Code/sw/drivers/pwm/s
    2355                      .dwattr $C$DW$211, DW_AT_TI_begin_line(0x417)
    2356                      .dwattr $C$DW$211, DW_AT_TI_begin_column(0x06)
    2357                      .dwattr $C$DW$211, DW_AT_TI_max_frame_size(-2)
    2358                      .dwpsn  file "D:/victor TI/Customer issue/Zero/4inOne/Code/sw/drivers/pwm/src/32b/f28x/f2802x/pwm.c",
    2359              
    2360                      .dwfde $C$DW$CIE, _PWM_setDigitalCompareFilterOffset
    2361              $C$DW$212       .dwtag  DW_TAG_formal_parameter, DW_AT_name("pwmHandle")
    2362                      .dwattr $C$DW$212, DW_AT_TI_symbol_name("_pwmHandle")
    2363                      .dwattr $C$DW$212, DW_AT_type(*$C$DW$T$33)
    2364                      .dwattr $C$DW$212, DW_AT_location[DW_OP_reg12]
    2365              $C$DW$213       .dwtag  DW_TAG_formal_parameter, DW_AT_name("offset")
    2366                      .dwattr $C$DW$213, DW_AT_TI_symbol_name("_offset")
    2367                      .dwattr $C$DW$213, DW_AT_type(*$C$DW$T$146)
    2368                      .dwattr $C$DW$213, DW_AT_location[DW_OP_reg0]
    2369              
    2370              ;***************************************************************
    2371              ;* FNAME: _PWM_setDigitalCompareFilterOffset FR SIZE:   0           *
    2372              ;*                                                             *
    2373              ;* FUNCTION ENVIRONMENT                                        *
    2374              ;*                                                             *
    2375              ;* FUNCTION PROPERTIES                                         *
TMS320C2000 Assembler PC v6.2.3 Mon Aug 03 18:20:51 2015

Tools Copyright (c) 1996-2013 Texas Instruments Incorporated
C:\Users\a0220341\AppData\Local\Temp\3112010                         PAGE   45

    2376              ;*                            0 Parameter,  0 Auto,  0 SOE     *
    2377              ;***************************************************************
    2378              
    2379              _PWM_setDigitalCompareFilterOffset:
    2380              ;* AR4   assigned to _pwmHandle
    2381              $C$DW$214       .dwtag  DW_TAG_variable, DW_AT_name("pwmHandle")
    2382                      .dwattr $C$DW$214, DW_AT_TI_symbol_name("_pwmHandle")
    2383                      .dwattr $C$DW$214, DW_AT_type(*$C$DW$T$127)
    2384                      .dwattr $C$DW$214, DW_AT_location[DW_OP_reg12]
    2385              ;* AL    assigned to _offset
    2386              $C$DW$215       .dwtag  DW_TAG_variable, DW_AT_name("offset")
    2387                      .dwattr $C$DW$215, DW_AT_TI_symbol_name("_offset")
    2388                      .dwattr $C$DW$215, DW_AT_type(*$C$DW$T$146)
    2389                      .dwattr $C$DW$215, DW_AT_location[DW_OP_reg0]
    2390                      .dwcfi  cfa_offset, -2
    2391                      .dwcfi  save_reg_to_mem, 26, 0
    2392                      .dwcfi  save_reg_to_reg, 78, 26
    2393                      .dwpsn  file "D:/victor TI/Customer issue/Zero/4inOne/Code/sw/drivers/pwm/src/32b/f28x/f2802x/pwm.c",
    2394 00000116 D035          MOVB      XAR0,#53              ; [CPU_] |1053| 
    2395 00000117 9694          MOV       *+XAR4[AR0],AL        ; [CPU_] |1053| 
    2396              $C$DW$216       .dwtag  DW_TAG_TI_branch
    2397                      .dwattr $C$DW$216, DW_AT_low_pc(0x00)
    2398                      .dwattr $C$DW$216, DW_AT_TI_return
    2399 00000118 0006          LRETR     ; [CPU_] 
    2400                      ; return occurs ; [] 
    2401                      .dwattr $C$DW$211, DW_AT_TI_end_file("D:/victor TI/Customer issue/Zero/4inOne/Code/sw/drivers/pwm/src
    2402                      .dwattr $C$DW$211, DW_AT_TI_end_line(0x420)
    2403                      .dwattr $C$DW$211, DW_AT_TI_end_column(0x01)
    2404                      .dwendentry
    2405                      .dwendtag $C$DW$211
    2406              
    2407 00000119               .sect   ".text"
    2408                      .global _PWM_setDigitalCompareBlankingPulse
    2409              
    2410              $C$DW$217       .dwtag  DW_TAG_subprogram, DW_AT_name("PWM_setDigitalCompareBlankingPulse")
    2411                      .dwattr $C$DW$217, DW_AT_low_pc(_PWM_setDigitalCompareBlankingPulse)
    2412                      .dwattr $C$DW$217, DW_AT_high_pc(0x00)
    2413                      .dwattr $C$DW$217, DW_AT_TI_symbol_name("_PWM_setDigitalCompareBlankingPulse")
    2414                      .dwattr $C$DW$217, DW_AT_external
    2415                      .dwattr $C$DW$217, DW_AT_TI_begin_file("D:/victor TI/Customer issue/Zero/4inOne/Code/sw/drivers/pwm/s
    2416                      .dwattr $C$DW$217, DW_AT_TI_begin_line(0x404)
    2417                      .dwattr $C$DW$217, DW_AT_TI_begin_column(0x06)
    2418                      .dwattr $C$DW$217, DW_AT_TI_max_frame_size(-2)
    2419                      .dwpsn  file "D:/victor TI/Customer issue/Zero/4inOne/Code/sw/drivers/pwm/src/32b/f28x/f2802x/pwm.c",
    2420              
    2421                      .dwfde $C$DW$CIE, _PWM_setDigitalCompareBlankingPulse
    2422              $C$DW$218       .dwtag  DW_TAG_formal_parameter, DW_AT_name("pwmHandle")
    2423                      .dwattr $C$DW$218, DW_AT_TI_symbol_name("_pwmHandle")
    2424                      .dwattr $C$DW$218, DW_AT_type(*$C$DW$T$33)
    2425                      .dwattr $C$DW$218, DW_AT_location[DW_OP_reg12]
    2426              $C$DW$219       .dwtag  DW_TAG_formal_parameter, DW_AT_name("pulseSelect")
    2427                      .dwattr $C$DW$219, DW_AT_TI_symbol_name("_pulseSelect")
    2428                      .dwattr $C$DW$219, DW_AT_type(*$C$DW$T$80)
    2429                      .dwattr $C$DW$219, DW_AT_location[DW_OP_reg0]
    2430              
TMS320C2000 Assembler PC v6.2.3 Mon Aug 03 18:20:51 2015

Tools Copyright (c) 1996-2013 Texas Instruments Incorporated
C:\Users\a0220341\AppData\Local\Temp\3112010                         PAGE   46

    2431              ;***************************************************************
    2432              ;* FNAME: _PWM_setDigitalCompareBlankingPulse FR SIZE:   0           *
    2433              ;*                                                             *
    2434              ;* FUNCTION ENVIRONMENT                                        *
    2435              ;*                                                             *
    2436              ;* FUNCTION PROPERTIES                                         *
    2437              ;*                            0 Parameter,  0 Auto,  0 SOE     *
    2438              ;***************************************************************
    2439              
    2440              _PWM_setDigitalCompareBlankingPulse:
    2441              ;* AR4   assigned to _pwmHandle
    2442              $C$DW$220       .dwtag  DW_TAG_variable, DW_AT_name("pwmHandle")
    2443                      .dwattr $C$DW$220, DW_AT_TI_symbol_name("_pwmHandle")
    2444                      .dwattr $C$DW$220, DW_AT_type(*$C$DW$T$127)
    2445                      .dwattr $C$DW$220, DW_AT_location[DW_OP_reg12]
    2446              ;* AL    assigned to _pulseSelect
    2447              $C$DW$221       .dwtag  DW_TAG_variable, DW_AT_name("pulseSelect")
    2448                      .dwattr $C$DW$221, DW_AT_TI_symbol_name("_pulseSelect")
    2449                      .dwattr $C$DW$221, DW_AT_type(*$C$DW$T$80)
    2450                      .dwattr $C$DW$221, DW_AT_location[DW_OP_reg0]
    2451                      .dwcfi  cfa_offset, -2
    2452                      .dwcfi  save_reg_to_mem, 26, 0
    2453                      .dwcfi  save_reg_to_reg, 78, 26
    2454 00000119 7622   EALLOW
    2455                      .dwpsn  file "D:/victor TI/Customer issue/Zero/4inOne/Code/sw/drivers/pwm/src/32b/f28x/f2802x/pwm.c",
    2456 0000011a 83A4          MOVL      XAR5,XAR4             ; [CPU_] |1036| 
    2457                      .dwpsn  file "D:/victor TI/Customer issue/Zero/4inOne/Code/sw/drivers/pwm/src/32b/f28x/f2802x/pwm.c",
    2458 0000011b 5603          MOV       ACC,AL << #4          ; [CPU_] |1039| 
         0000011c 04A9 
    2459 0000011d DC33          ADDB      XAR4,#51              ; [CPU_] |1039| 
    2460                      .dwpsn  file "D:/victor TI/Customer issue/Zero/4inOne/Code/sw/drivers/pwm/src/32b/f28x/f2802x/pwm.c",
    2461 0000011e DD33          ADDB      XAR5,#51              ; [CPU_] |1036| 
    2462 0000011f 18C5          AND       *+XAR5[0],#0xffcf     ; [CPU_] |1036| 
         00000120 FFCF 
    2463                      .dwpsn  file "D:/victor TI/Customer issue/Zero/4inOne/Code/sw/drivers/pwm/src/32b/f28x/f2802x/pwm.c",
    2464 00000121 98C4          OR        *+XAR4[0],AL          ; [CPU_] |1039| 
    2465 00000122 761A   EDIS
    2466 00000123 FF69          SPM       #0                    ; [CPU_] 
    2467              $C$DW$222       .dwtag  DW_TAG_TI_branch
    2468                      .dwattr $C$DW$222, DW_AT_low_pc(0x00)
    2469                      .dwattr $C$DW$222, DW_AT_TI_return
    2470 00000124 0006          LRETR     ; [CPU_] 
    2471                      ; return occurs ; [] 
    2472                      .dwattr $C$DW$217, DW_AT_TI_end_file("D:/victor TI/Customer issue/Zero/4inOne/Code/sw/drivers/pwm/src
    2473                      .dwattr $C$DW$217, DW_AT_TI_end_line(0x414)
    2474                      .dwattr $C$DW$217, DW_AT_TI_end_column(0x01)
    2475                      .dwendentry
    2476                      .dwendtag $C$DW$217
    2477              
    2478 00000125               .sect   ".text"
    2479                      .global _PWM_setDigitalCompareBEvent2
    2480              
    2481              $C$DW$223       .dwtag  DW_TAG_subprogram, DW_AT_name("PWM_setDigitalCompareBEvent2")
    2482                      .dwattr $C$DW$223, DW_AT_low_pc(_PWM_setDigitalCompareBEvent2)
    2483                      .dwattr $C$DW$223, DW_AT_high_pc(0x00)
TMS320C2000 Assembler PC v6.2.3 Mon Aug 03 18:20:51 2015

Tools Copyright (c) 1996-2013 Texas Instruments Incorporated
C:\Users\a0220341\AppData\Local\Temp\3112010                         PAGE   47

    2484                      .dwattr $C$DW$223, DW_AT_TI_symbol_name("_PWM_setDigitalCompareBEvent2")
    2485                      .dwattr $C$DW$223, DW_AT_external
    2486                      .dwattr $C$DW$223, DW_AT_TI_begin_file("D:/victor TI/Customer issue/Zero/4inOne/Code/sw/drivers/pwm/s
    2487                      .dwattr $C$DW$223, DW_AT_TI_begin_line(0x483)
    2488                      .dwattr $C$DW$223, DW_AT_TI_begin_column(0x06)
    2489                      .dwattr $C$DW$223, DW_AT_TI_max_frame_size(-2)
    2490                      .dwpsn  file "D:/victor TI/Customer issue/Zero/4inOne/Code/sw/drivers/pwm/src/32b/f28x/f2802x/pwm.c",
    2491              
    2492                      .dwfde $C$DW$CIE, _PWM_setDigitalCompareBEvent2
    2493              $C$DW$224       .dwtag  DW_TAG_formal_parameter, DW_AT_name("pwmHandle")
    2494                      .dwattr $C$DW$224, DW_AT_TI_symbol_name("_pwmHandle")
    2495                      .dwattr $C$DW$224, DW_AT_type(*$C$DW$T$33)
    2496                      .dwattr $C$DW$224, DW_AT_location[DW_OP_reg12]
    2497              $C$DW$225       .dwtag  DW_TAG_formal_parameter, DW_AT_name("selectFilter")
    2498                      .dwattr $C$DW$225, DW_AT_TI_symbol_name("_selectFilter")
    2499                      .dwattr $C$DW$225, DW_AT_type(*$C$DW$T$156)
    2500                      .dwattr $C$DW$225, DW_AT_location[DW_OP_reg0]
    2501              $C$DW$226       .dwtag  DW_TAG_formal_parameter, DW_AT_name("disableSync")
    2502                      .dwattr $C$DW$226, DW_AT_TI_symbol_name("_disableSync")
    2503                      .dwattr $C$DW$226, DW_AT_type(*$C$DW$T$156)
    2504                      .dwattr $C$DW$226, DW_AT_location[DW_OP_reg1]
    2505              
    2506              ;***************************************************************
    2507              ;* FNAME: _PWM_setDigitalCompareBEvent2 FR SIZE:   0           *
    2508              ;*                                                             *
    2509              ;* FUNCTION ENVIRONMENT                                        *
    2510              ;*                                                             *
    2511              ;* FUNCTION PROPERTIES                                         *
    2512              ;*                            0 Parameter,  0 Auto,  0 SOE     *
    2513              ;***************************************************************
    2514              
    2515              _PWM_setDigitalCompareBEvent2:
    2516              ;* AR4   assigned to _pwmHandle
    2517              $C$DW$227       .dwtag  DW_TAG_variable, DW_AT_name("pwmHandle")
    2518                      .dwattr $C$DW$227, DW_AT_TI_symbol_name("_pwmHandle")
    2519                      .dwattr $C$DW$227, DW_AT_type(*$C$DW$T$127)
    2520                      .dwattr $C$DW$227, DW_AT_location[DW_OP_reg12]
    2521              ;* AR6   assigned to _selectFilter
    2522              $C$DW$228       .dwtag  DW_TAG_variable, DW_AT_name("selectFilter")
    2523                      .dwattr $C$DW$228, DW_AT_TI_symbol_name("_selectFilter")
    2524                      .dwattr $C$DW$228, DW_AT_type(*$C$DW$T$156)
    2525                      .dwattr $C$DW$228, DW_AT_location[DW_OP_reg16]
    2526              ;* AH    assigned to _disableSync
    2527              $C$DW$229       .dwtag  DW_TAG_variable, DW_AT_name("disableSync")
    2528                      .dwattr $C$DW$229, DW_AT_TI_symbol_name("_disableSync")
    2529                      .dwattr $C$DW$229, DW_AT_type(*$C$DW$T$156)
    2530                      .dwattr $C$DW$229, DW_AT_location[DW_OP_reg1]
    2531                      .dwcfi  cfa_offset, -2
    2532                      .dwcfi  save_reg_to_mem, 26, 0
    2533                      .dwcfi  save_reg_to_reg, 78, 26
    2534 00000125 88A9          MOVZ      AR6,AL                ; [CPU_] |1158| 
    2535 00000126 7622   EALLOW
    2536                      .dwpsn  file "D:/victor TI/Customer issue/Zero/4inOne/Code/sw/drivers/pwm/src/32b/f28x/f2802x/pwm.c",
    2537 00000127 83A4          MOVL      XAR5,XAR4             ; [CPU_] |1164| 
    2538                      .dwpsn  file "D:/victor TI/Customer issue/Zero/4inOne/Code/sw/drivers/pwm/src/32b/f28x/f2802x/pwm.c",
TMS320C2000 Assembler PC v6.2.3 Mon Aug 03 18:20:51 2015

Tools Copyright (c) 1996-2013 Texas Instruments Incorporated
C:\Users\a0220341\AppData\Local\Temp\3112010                         PAGE   48

    2539 00000128 5603          MOV       ACC,AH << #1          ; [CPU_] |1167| 
         00000129 01A8 
    2540 0000012a CAA6          OR        AL,AR6                ; [CPU_] |1167| 
    2541 0000012b DC32          ADDB      XAR4,#50              ; [CPU_] |1167| 
    2542 0000012c 5603          MOV       ACC,AL << #8          ; [CPU_] |1167| 
         0000012d 08A9 
    2543                      .dwpsn  file "D:/victor TI/Customer issue/Zero/4inOne/Code/sw/drivers/pwm/src/32b/f28x/f2802x/pwm.c",
    2544 0000012e DD32          ADDB      XAR5,#50              ; [CPU_] |1164| 
    2545 0000012f 18C5          AND       *+XAR5[0],#0xfcff     ; [CPU_] |1164| 
         00000130 FCFF 
    2546                      .dwpsn  file "D:/victor TI/Customer issue/Zero/4inOne/Code/sw/drivers/pwm/src/32b/f28x/f2802x/pwm.c",
    2547 00000131 98C4          OR        *+XAR4[0],AL          ; [CPU_] |1167| 
    2548 00000132 761A   EDIS
    2549 00000133 FF69          SPM       #0                    ; [CPU_] 
    2550              $C$DW$230       .dwtag  DW_TAG_TI_branch
    2551                      .dwattr $C$DW$230, DW_AT_low_pc(0x00)
    2552                      .dwattr $C$DW$230, DW_AT_TI_return
    2553 00000134 0006          LRETR     ; [CPU_] 
    2554                      ; return occurs ; [] 
    2555                      .dwattr $C$DW$223, DW_AT_TI_end_file("D:/victor TI/Customer issue/Zero/4inOne/Code/sw/drivers/pwm/src
    2556                      .dwattr $C$DW$223, DW_AT_TI_end_line(0x494)
    2557                      .dwattr $C$DW$223, DW_AT_TI_end_column(0x01)
    2558                      .dwendentry
    2559                      .dwendtag $C$DW$223
    2560              
    2561 00000135               .sect   ".text"
    2562                      .global _PWM_setDigitalCompareBEvent1
    2563              
    2564              $C$DW$231       .dwtag  DW_TAG_subprogram, DW_AT_name("PWM_setDigitalCompareBEvent1")
    2565                      .dwattr $C$DW$231, DW_AT_low_pc(_PWM_setDigitalCompareBEvent1)
    2566                      .dwattr $C$DW$231, DW_AT_high_pc(0x00)
    2567                      .dwattr $C$DW$231, DW_AT_TI_symbol_name("_PWM_setDigitalCompareBEvent1")
    2568                      .dwattr $C$DW$231, DW_AT_external
    2569                      .dwattr $C$DW$231, DW_AT_TI_begin_file("D:/victor TI/Customer issue/Zero/4inOne/Code/sw/drivers/pwm/s
    2570                      .dwattr $C$DW$231, DW_AT_TI_begin_line(0x46d)
    2571                      .dwattr $C$DW$231, DW_AT_TI_begin_column(0x06)
    2572                      .dwattr $C$DW$231, DW_AT_TI_max_frame_size(-2)
    2573                      .dwpsn  file "D:/victor TI/Customer issue/Zero/4inOne/Code/sw/drivers/pwm/src/32b/f28x/f2802x/pwm.c",
    2574              
    2575                      .dwfde $C$DW$CIE, _PWM_setDigitalCompareBEvent1
    2576              $C$DW$232       .dwtag  DW_TAG_formal_parameter, DW_AT_name("pwmHandle")
    2577                      .dwattr $C$DW$232, DW_AT_TI_symbol_name("_pwmHandle")
    2578                      .dwattr $C$DW$232, DW_AT_type(*$C$DW$T$33)
    2579                      .dwattr $C$DW$232, DW_AT_location[DW_OP_reg12]
    2580              $C$DW$233       .dwtag  DW_TAG_formal_parameter, DW_AT_name("selectFilter")
    2581                      .dwattr $C$DW$233, DW_AT_TI_symbol_name("_selectFilter")
    2582                      .dwattr $C$DW$233, DW_AT_type(*$C$DW$T$156)
    2583                      .dwattr $C$DW$233, DW_AT_location[DW_OP_reg0]
    2584              $C$DW$234       .dwtag  DW_TAG_formal_parameter, DW_AT_name("disableSync")
    2585                      .dwattr $C$DW$234, DW_AT_TI_symbol_name("_disableSync")
    2586                      .dwattr $C$DW$234, DW_AT_type(*$C$DW$T$156)
    2587                      .dwattr $C$DW$234, DW_AT_location[DW_OP_reg1]
    2588              $C$DW$235       .dwtag  DW_TAG_formal_parameter, DW_AT_name("enableSoc")
    2589                      .dwattr $C$DW$235, DW_AT_TI_symbol_name("_enableSoc")
    2590                      .dwattr $C$DW$235, DW_AT_type(*$C$DW$T$156)
TMS320C2000 Assembler PC v6.2.3 Mon Aug 03 18:20:51 2015

Tools Copyright (c) 1996-2013 Texas Instruments Incorporated
C:\Users\a0220341\AppData\Local\Temp\3112010                         PAGE   49

    2591                      .dwattr $C$DW$235, DW_AT_location[DW_OP_reg14]
    2592              $C$DW$236       .dwtag  DW_TAG_formal_parameter, DW_AT_name("generateSync")
    2593                      .dwattr $C$DW$236, DW_AT_TI_symbol_name("_generateSync")
    2594                      .dwattr $C$DW$236, DW_AT_type(*$C$DW$T$156)
    2595                      .dwattr $C$DW$236, DW_AT_location[DW_OP_breg20 -3]
    2596              
    2597              ;***************************************************************
    2598              ;* FNAME: _PWM_setDigitalCompareBEvent1 FR SIZE:   0           *
    2599              ;*                                                             *
    2600              ;* FUNCTION ENVIRONMENT                                        *
    2601              ;*                                                             *
    2602              ;* FUNCTION PROPERTIES                                         *
    2603              ;*                            0 Parameter,  0 Auto,  0 SOE     *
    2604              ;***************************************************************
    2605              
    2606              _PWM_setDigitalCompareBEvent1:
    2607              ;* AR4   assigned to _pwmHandle
    2608              $C$DW$237       .dwtag  DW_TAG_variable, DW_AT_name("pwmHandle")
    2609                      .dwattr $C$DW$237, DW_AT_TI_symbol_name("_pwmHandle")
    2610                      .dwattr $C$DW$237, DW_AT_type(*$C$DW$T$127)
    2611                      .dwattr $C$DW$237, DW_AT_location[DW_OP_reg12]
    2612              ;* AR7   assigned to _selectFilter
    2613              $C$DW$238       .dwtag  DW_TAG_variable, DW_AT_name("selectFilter")
    2614                      .dwattr $C$DW$238, DW_AT_TI_symbol_name("_selectFilter")
    2615                      .dwattr $C$DW$238, DW_AT_type(*$C$DW$T$156)
    2616                      .dwattr $C$DW$238, DW_AT_location[DW_OP_reg18]
    2617              ;* PL    assigned to _disableSync
    2618              $C$DW$239       .dwtag  DW_TAG_variable, DW_AT_name("disableSync")
    2619                      .dwattr $C$DW$239, DW_AT_TI_symbol_name("_disableSync")
    2620                      .dwattr $C$DW$239, DW_AT_type(*$C$DW$T$156)
    2621                      .dwattr $C$DW$239, DW_AT_location[DW_OP_reg2]
    2622              ;* AR5   assigned to _enableSoc
    2623              $C$DW$240       .dwtag  DW_TAG_variable, DW_AT_name("enableSoc")
    2624                      .dwattr $C$DW$240, DW_AT_TI_symbol_name("_enableSoc")
    2625                      .dwattr $C$DW$240, DW_AT_type(*$C$DW$T$156)
    2626                      .dwattr $C$DW$240, DW_AT_location[DW_OP_reg14]
    2627              ;* AL    assigned to _generateSync
    2628              $C$DW$241       .dwtag  DW_TAG_variable, DW_AT_name("generateSync")
    2629                      .dwattr $C$DW$241, DW_AT_TI_symbol_name("_generateSync")
    2630                      .dwattr $C$DW$241, DW_AT_type(*$C$DW$T$156)
    2631                      .dwattr $C$DW$241, DW_AT_location[DW_OP_reg0]
    2632                      .dwcfi  cfa_offset, -2
    2633                      .dwcfi  save_reg_to_mem, 26, 0
    2634                      .dwcfi  save_reg_to_reg, 78, 26
    2635 00000135 27A8          MOV       PL,AH                 ; [CPU_] |1138| 
    2636 00000136 80A9          MOVZ      AR7,AL                ; [CPU_] |1138| 
    2637 00000137 9243          MOV       AL,*-SP[3]            ; [CPU_] |1138| 
    2638 00000138 7622   EALLOW
    2639                      .dwpsn  file "D:/victor TI/Customer issue/Zero/4inOne/Code/sw/drivers/pwm/src/32b/f28x/f2802x/pwm.c",
    2640 00000139 C4A4          MOVL      XAR6,XAR4             ; [CPU_] |1144| 
    2641                      .dwpsn  file "D:/victor TI/Customer issue/Zero/4inOne/Code/sw/drivers/pwm/src/32b/f28x/f2802x/pwm.c",
    2642 0000013a 5603          MOV       ACC,AL << #1          ; [CPU_] |1147| 
         0000013b 01A9 
    2643 0000013c CAA5          OR        AL,AR5                ; [CPU_] |1147| 
    2644 0000013d DC32          ADDB      XAR4,#50              ; [CPU_] |1147| 
TMS320C2000 Assembler PC v6.2.3 Mon Aug 03 18:20:51 2015

Tools Copyright (c) 1996-2013 Texas Instruments Incorporated
C:\Users\a0220341\AppData\Local\Temp\3112010                         PAGE   50

    2645                      .dwpsn  file "D:/victor TI/Customer issue/Zero/4inOne/Code/sw/drivers/pwm/src/32b/f28x/f2802x/pwm.c",
    2646 0000013e DE32          ADDB      XAR6,#50              ; [CPU_] |1144| 
    2647                      .dwpsn  file "D:/victor TI/Customer issue/Zero/4inOne/Code/sw/drivers/pwm/src/32b/f28x/f2802x/pwm.c",
    2648 0000013f 5603          MOV       ACC,AL << #1          ; [CPU_] |1147| 
         00000140 01A9 
    2649                      .dwpsn  file "D:/victor TI/Customer issue/Zero/4inOne/Code/sw/drivers/pwm/src/32b/f28x/f2802x/pwm.c",
    2650 00000141 18C6          AND       *+XAR6[0],#0xfff0     ; [CPU_] |1144| 
         00000142 FFF0 
    2651                      .dwpsn  file "D:/victor TI/Customer issue/Zero/4inOne/Code/sw/drivers/pwm/src/32b/f28x/f2802x/pwm.c",
    2652 00000143 CAAB          OR        AL,PL                 ; [CPU_] |1147| 
    2653 00000144 5603          MOV       ACC,AL << #1          ; [CPU_] |1147| 
         00000145 01A9 
    2654 00000146 CAC4          OR        AL,*+XAR4[0]          ; [CPU_] |1147| 
    2655 00000147 CAA7          OR        AL,AR7                ; [CPU_] |1147| 
    2656 00000148 96C4          MOV       *+XAR4[0],AL          ; [CPU_] |1147| 
    2657 00000149 761A   EDIS
    2658 0000014a FF69          SPM       #0                    ; [CPU_] 
    2659              $C$DW$242       .dwtag  DW_TAG_TI_branch
    2660                      .dwattr $C$DW$242, DW_AT_low_pc(0x00)
    2661                      .dwattr $C$DW$242, DW_AT_TI_return
    2662 0000014b 0006          LRETR     ; [CPU_] 
    2663                      ; return occurs ; [] 
    2664                      .dwattr $C$DW$231, DW_AT_TI_end_file("D:/victor TI/Customer issue/Zero/4inOne/Code/sw/drivers/pwm/src
    2665                      .dwattr $C$DW$231, DW_AT_TI_end_line(0x480)
    2666                      .dwattr $C$DW$231, DW_AT_TI_end_column(0x01)
    2667                      .dwendentry
    2668                      .dwendtag $C$DW$231
    2669              
    2670 0000014c               .sect   ".text"
    2671                      .global _PWM_setDigitalCompareAEvent2
    2672              
    2673              $C$DW$243       .dwtag  DW_TAG_subprogram, DW_AT_name("PWM_setDigitalCompareAEvent2")
    2674                      .dwattr $C$DW$243, DW_AT_low_pc(_PWM_setDigitalCompareAEvent2)
    2675                      .dwattr $C$DW$243, DW_AT_high_pc(0x00)
    2676                      .dwattr $C$DW$243, DW_AT_TI_symbol_name("_PWM_setDigitalCompareAEvent2")
    2677                      .dwattr $C$DW$243, DW_AT_external
    2678                      .dwattr $C$DW$243, DW_AT_TI_begin_file("D:/victor TI/Customer issue/Zero/4inOne/Code/sw/drivers/pwm/s
    2679                      .dwattr $C$DW$243, DW_AT_TI_begin_line(0x459)
    2680                      .dwattr $C$DW$243, DW_AT_TI_begin_column(0x06)
    2681                      .dwattr $C$DW$243, DW_AT_TI_max_frame_size(-2)
    2682                      .dwpsn  file "D:/victor TI/Customer issue/Zero/4inOne/Code/sw/drivers/pwm/src/32b/f28x/f2802x/pwm.c",
    2683              
    2684                      .dwfde $C$DW$CIE, _PWM_setDigitalCompareAEvent2
    2685              $C$DW$244       .dwtag  DW_TAG_formal_parameter, DW_AT_name("pwmHandle")
    2686                      .dwattr $C$DW$244, DW_AT_TI_symbol_name("_pwmHandle")
    2687                      .dwattr $C$DW$244, DW_AT_type(*$C$DW$T$33)
    2688                      .dwattr $C$DW$244, DW_AT_location[DW_OP_reg12]
    2689              $C$DW$245       .dwtag  DW_TAG_formal_parameter, DW_AT_name("selectFilter")
    2690                      .dwattr $C$DW$245, DW_AT_TI_symbol_name("_selectFilter")
    2691                      .dwattr $C$DW$245, DW_AT_type(*$C$DW$T$156)
    2692                      .dwattr $C$DW$245, DW_AT_location[DW_OP_reg0]
    2693              $C$DW$246       .dwtag  DW_TAG_formal_parameter, DW_AT_name("disableSync")
    2694                      .dwattr $C$DW$246, DW_AT_TI_symbol_name("_disableSync")
    2695                      .dwattr $C$DW$246, DW_AT_type(*$C$DW$T$156)
    2696                      .dwattr $C$DW$246, DW_AT_location[DW_OP_reg1]
TMS320C2000 Assembler PC v6.2.3 Mon Aug 03 18:20:51 2015

Tools Copyright (c) 1996-2013 Texas Instruments Incorporated
C:\Users\a0220341\AppData\Local\Temp\3112010                         PAGE   51

    2697              
    2698              ;***************************************************************
    2699              ;* FNAME: _PWM_setDigitalCompareAEvent2 FR SIZE:   0           *
    2700              ;*                                                             *
    2701              ;* FUNCTION ENVIRONMENT                                        *
    2702              ;*                                                             *
    2703              ;* FUNCTION PROPERTIES                                         *
    2704              ;*                            0 Parameter,  0 Auto,  0 SOE     *
    2705              ;***************************************************************
    2706              
    2707              _PWM_setDigitalCompareAEvent2:
    2708              ;* AR4   assigned to _pwmHandle
    2709              $C$DW$247       .dwtag  DW_TAG_variable, DW_AT_name("pwmHandle")
    2710                      .dwattr $C$DW$247, DW_AT_TI_symbol_name("_pwmHandle")
    2711                      .dwattr $C$DW$247, DW_AT_type(*$C$DW$T$127)
    2712                      .dwattr $C$DW$247, DW_AT_location[DW_OP_reg12]
    2713              ;* AR6   assigned to _selectFilter
    2714              $C$DW$248       .dwtag  DW_TAG_variable, DW_AT_name("selectFilter")
    2715                      .dwattr $C$DW$248, DW_AT_TI_symbol_name("_selectFilter")
    2716                      .dwattr $C$DW$248, DW_AT_type(*$C$DW$T$156)
    2717                      .dwattr $C$DW$248, DW_AT_location[DW_OP_reg16]
    2718              ;* AH    assigned to _disableSync
    2719              $C$DW$249       .dwtag  DW_TAG_variable, DW_AT_name("disableSync")
    2720                      .dwattr $C$DW$249, DW_AT_TI_symbol_name("_disableSync")
    2721                      .dwattr $C$DW$249, DW_AT_type(*$C$DW$T$156)
    2722                      .dwattr $C$DW$249, DW_AT_location[DW_OP_reg1]
    2723                      .dwcfi  cfa_offset, -2
    2724                      .dwcfi  save_reg_to_mem, 26, 0
    2725                      .dwcfi  save_reg_to_reg, 78, 26
    2726 0000014c 88A9          MOVZ      AR6,AL                ; [CPU_] |1116| 
    2727 0000014d 7622   EALLOW
    2728                      .dwpsn  file "D:/victor TI/Customer issue/Zero/4inOne/Code/sw/drivers/pwm/src/32b/f28x/f2802x/pwm.c",
    2729 0000014e 83A4          MOVL      XAR5,XAR4             ; [CPU_] |1122| 
    2730                      .dwpsn  file "D:/victor TI/Customer issue/Zero/4inOne/Code/sw/drivers/pwm/src/32b/f28x/f2802x/pwm.c",
    2731 0000014f 5603          MOV       ACC,AH << #1          ; [CPU_] |1125| 
         00000150 01A8 
    2732 00000151 CAA6          OR        AL,AR6                ; [CPU_] |1125| 
    2733 00000152 DC31          ADDB      XAR4,#49              ; [CPU_] |1125| 
    2734 00000153 5603          MOV       ACC,AL << #8          ; [CPU_] |1125| 
         00000154 08A9 
    2735                      .dwpsn  file "D:/victor TI/Customer issue/Zero/4inOne/Code/sw/drivers/pwm/src/32b/f28x/f2802x/pwm.c",
    2736 00000155 DD31          ADDB      XAR5,#49              ; [CPU_] |1122| 
    2737 00000156 18C5          AND       *+XAR5[0],#0xfcff     ; [CPU_] |1122| 
         00000157 FCFF 
    2738                      .dwpsn  file "D:/victor TI/Customer issue/Zero/4inOne/Code/sw/drivers/pwm/src/32b/f28x/f2802x/pwm.c",
    2739 00000158 98C4          OR        *+XAR4[0],AL          ; [CPU_] |1125| 
    2740 00000159 761A   EDIS
    2741 0000015a FF69          SPM       #0                    ; [CPU_] 
    2742              $C$DW$250       .dwtag  DW_TAG_TI_branch
    2743                      .dwattr $C$DW$250, DW_AT_low_pc(0x00)
    2744                      .dwattr $C$DW$250, DW_AT_TI_return
    2745 0000015b 0006          LRETR     ; [CPU_] 
    2746                      ; return occurs ; [] 
    2747                      .dwattr $C$DW$243, DW_AT_TI_end_file("D:/victor TI/Customer issue/Zero/4inOne/Code/sw/drivers/pwm/src
    2748                      .dwattr $C$DW$243, DW_AT_TI_end_line(0x46a)
TMS320C2000 Assembler PC v6.2.3 Mon Aug 03 18:20:51 2015

Tools Copyright (c) 1996-2013 Texas Instruments Incorporated
C:\Users\a0220341\AppData\Local\Temp\3112010                         PAGE   52

    2749                      .dwattr $C$DW$243, DW_AT_TI_end_column(0x01)
    2750                      .dwendentry
    2751                      .dwendtag $C$DW$243
    2752              
    2753 0000015c               .sect   ".text"
    2754                      .global _PWM_setDigitalCompareAEvent1
    2755              
    2756              $C$DW$251       .dwtag  DW_TAG_subprogram, DW_AT_name("PWM_setDigitalCompareAEvent1")
    2757                      .dwattr $C$DW$251, DW_AT_low_pc(_PWM_setDigitalCompareAEvent1)
    2758                      .dwattr $C$DW$251, DW_AT_high_pc(0x00)
    2759                      .dwattr $C$DW$251, DW_AT_TI_symbol_name("_PWM_setDigitalCompareAEvent1")
    2760                      .dwattr $C$DW$251, DW_AT_external
    2761                      .dwattr $C$DW$251, DW_AT_TI_begin_file("D:/victor TI/Customer issue/Zero/4inOne/Code/sw/drivers/pwm/s
    2762                      .dwattr $C$DW$251, DW_AT_TI_begin_line(0x443)
    2763                      .dwattr $C$DW$251, DW_AT_TI_begin_column(0x06)
    2764                      .dwattr $C$DW$251, DW_AT_TI_max_frame_size(-2)
    2765                      .dwpsn  file "D:/victor TI/Customer issue/Zero/4inOne/Code/sw/drivers/pwm/src/32b/f28x/f2802x/pwm.c",
    2766              
    2767                      .dwfde $C$DW$CIE, _PWM_setDigitalCompareAEvent1
    2768              $C$DW$252       .dwtag  DW_TAG_formal_parameter, DW_AT_name("pwmHandle")
    2769                      .dwattr $C$DW$252, DW_AT_TI_symbol_name("_pwmHandle")
    2770                      .dwattr $C$DW$252, DW_AT_type(*$C$DW$T$33)
    2771                      .dwattr $C$DW$252, DW_AT_location[DW_OP_reg12]
    2772              $C$DW$253       .dwtag  DW_TAG_formal_parameter, DW_AT_name("selectFilter")
    2773                      .dwattr $C$DW$253, DW_AT_TI_symbol_name("_selectFilter")
    2774                      .dwattr $C$DW$253, DW_AT_type(*$C$DW$T$156)
    2775                      .dwattr $C$DW$253, DW_AT_location[DW_OP_reg0]
    2776              $C$DW$254       .dwtag  DW_TAG_formal_parameter, DW_AT_name("disableSync")
    2777                      .dwattr $C$DW$254, DW_AT_TI_symbol_name("_disableSync")
    2778                      .dwattr $C$DW$254, DW_AT_type(*$C$DW$T$156)
    2779                      .dwattr $C$DW$254, DW_AT_location[DW_OP_reg1]
    2780              $C$DW$255       .dwtag  DW_TAG_formal_parameter, DW_AT_name("enableSoc")
    2781                      .dwattr $C$DW$255, DW_AT_TI_symbol_name("_enableSoc")
    2782                      .dwattr $C$DW$255, DW_AT_type(*$C$DW$T$156)
    2783                      .dwattr $C$DW$255, DW_AT_location[DW_OP_reg14]
    2784              $C$DW$256       .dwtag  DW_TAG_formal_parameter, DW_AT_name("generateSync")
    2785                      .dwattr $C$DW$256, DW_AT_TI_symbol_name("_generateSync")
    2786                      .dwattr $C$DW$256, DW_AT_type(*$C$DW$T$156)
    2787                      .dwattr $C$DW$256, DW_AT_location[DW_OP_breg20 -3]
    2788              
    2789              ;***************************************************************
    2790              ;* FNAME: _PWM_setDigitalCompareAEvent1 FR SIZE:   0           *
    2791              ;*                                                             *
    2792              ;* FUNCTION ENVIRONMENT                                        *
    2793              ;*                                                             *
    2794              ;* FUNCTION PROPERTIES                                         *
    2795              ;*                            0 Parameter,  0 Auto,  0 SOE     *
    2796              ;***************************************************************
    2797              
    2798              _PWM_setDigitalCompareAEvent1:
    2799              ;* AR4   assigned to _pwmHandle
    2800              $C$DW$257       .dwtag  DW_TAG_variable, DW_AT_name("pwmHandle")
    2801                      .dwattr $C$DW$257, DW_AT_TI_symbol_name("_pwmHandle")
    2802                      .dwattr $C$DW$257, DW_AT_type(*$C$DW$T$127)
    2803                      .dwattr $C$DW$257, DW_AT_location[DW_OP_reg12]
TMS320C2000 Assembler PC v6.2.3 Mon Aug 03 18:20:51 2015

Tools Copyright (c) 1996-2013 Texas Instruments Incorporated
C:\Users\a0220341\AppData\Local\Temp\3112010                         PAGE   53

    2804              ;* AR7   assigned to _selectFilter
    2805              $C$DW$258       .dwtag  DW_TAG_variable, DW_AT_name("selectFilter")
    2806                      .dwattr $C$DW$258, DW_AT_TI_symbol_name("_selectFilter")
    2807                      .dwattr $C$DW$258, DW_AT_type(*$C$DW$T$156)
    2808                      .dwattr $C$DW$258, DW_AT_location[DW_OP_reg18]
    2809              ;* PL    assigned to _disableSync
    2810              $C$DW$259       .dwtag  DW_TAG_variable, DW_AT_name("disableSync")
    2811                      .dwattr $C$DW$259, DW_AT_TI_symbol_name("_disableSync")
    2812                      .dwattr $C$DW$259, DW_AT_type(*$C$DW$T$156)
    2813                      .dwattr $C$DW$259, DW_AT_location[DW_OP_reg2]
    2814              ;* AR5   assigned to _enableSoc
    2815              $C$DW$260       .dwtag  DW_TAG_variable, DW_AT_name("enableSoc")
    2816                      .dwattr $C$DW$260, DW_AT_TI_symbol_name("_enableSoc")
    2817                      .dwattr $C$DW$260, DW_AT_type(*$C$DW$T$156)
    2818                      .dwattr $C$DW$260, DW_AT_location[DW_OP_reg14]
    2819              ;* AL    assigned to _generateSync
    2820              $C$DW$261       .dwtag  DW_TAG_variable, DW_AT_name("generateSync")
    2821                      .dwattr $C$DW$261, DW_AT_TI_symbol_name("_generateSync")
    2822                      .dwattr $C$DW$261, DW_AT_type(*$C$DW$T$156)
    2823                      .dwattr $C$DW$261, DW_AT_location[DW_OP_reg0]
    2824                      .dwcfi  cfa_offset, -2
    2825                      .dwcfi  save_reg_to_mem, 26, 0
    2826                      .dwcfi  save_reg_to_reg, 78, 26
    2827 0000015c 27A8          MOV       PL,AH                 ; [CPU_] |1096| 
    2828 0000015d 80A9          MOVZ      AR7,AL                ; [CPU_] |1096| 
    2829 0000015e 9243          MOV       AL,*-SP[3]            ; [CPU_] |1096| 
    2830 0000015f 7622   EALLOW
    2831                      .dwpsn  file "D:/victor TI/Customer issue/Zero/4inOne/Code/sw/drivers/pwm/src/32b/f28x/f2802x/pwm.c",
    2832 00000160 C4A4          MOVL      XAR6,XAR4             ; [CPU_] |1102| 
    2833                      .dwpsn  file "D:/victor TI/Customer issue/Zero/4inOne/Code/sw/drivers/pwm/src/32b/f28x/f2802x/pwm.c",
    2834 00000161 5603          MOV       ACC,AL << #1          ; [CPU_] |1105| 
         00000162 01A9 
    2835 00000163 CAA5          OR        AL,AR5                ; [CPU_] |1105| 
    2836 00000164 DC31          ADDB      XAR4,#49              ; [CPU_] |1105| 
    2837                      .dwpsn  file "D:/victor TI/Customer issue/Zero/4inOne/Code/sw/drivers/pwm/src/32b/f28x/f2802x/pwm.c",
    2838 00000165 DE31          ADDB      XAR6,#49              ; [CPU_] |1102| 
    2839                      .dwpsn  file "D:/victor TI/Customer issue/Zero/4inOne/Code/sw/drivers/pwm/src/32b/f28x/f2802x/pwm.c",
    2840 00000166 5603          MOV       ACC,AL << #1          ; [CPU_] |1105| 
         00000167 01A9 
    2841                      .dwpsn  file "D:/victor TI/Customer issue/Zero/4inOne/Code/sw/drivers/pwm/src/32b/f28x/f2802x/pwm.c",
    2842 00000168 18C6          AND       *+XAR6[0],#0xfff0     ; [CPU_] |1102| 
         00000169 FFF0 
    2843                      .dwpsn  file "D:/victor TI/Customer issue/Zero/4inOne/Code/sw/drivers/pwm/src/32b/f28x/f2802x/pwm.c",
    2844 0000016a CAAB          OR        AL,PL                 ; [CPU_] |1105| 
    2845 0000016b 5603          MOV       ACC,AL << #1          ; [CPU_] |1105| 
         0000016c 01A9 
    2846 0000016d CAC4          OR        AL,*+XAR4[0]          ; [CPU_] |1105| 
    2847 0000016e CAA7          OR        AL,AR7                ; [CPU_] |1105| 
    2848 0000016f 96C4          MOV       *+XAR4[0],AL          ; [CPU_] |1105| 
    2849 00000170 761A   EDIS
    2850 00000171 FF69          SPM       #0                    ; [CPU_] 
    2851              $C$DW$262       .dwtag  DW_TAG_TI_branch
    2852                      .dwattr $C$DW$262, DW_AT_low_pc(0x00)
    2853                      .dwattr $C$DW$262, DW_AT_TI_return
    2854 00000172 0006          LRETR     ; [CPU_] 
TMS320C2000 Assembler PC v6.2.3 Mon Aug 03 18:20:51 2015

Tools Copyright (c) 1996-2013 Texas Instruments Incorporated
C:\Users\a0220341\AppData\Local\Temp\3112010                         PAGE   54

    2855                      ; return occurs ; [] 
    2856                      .dwattr $C$DW$251, DW_AT_TI_end_file("D:/victor TI/Customer issue/Zero/4inOne/Code/sw/drivers/pwm/src
    2857                      .dwattr $C$DW$251, DW_AT_TI_end_line(0x456)
    2858                      .dwattr $C$DW$251, DW_AT_TI_end_column(0x01)
    2859                      .dwendentry
    2860                      .dwendtag $C$DW$251
    2861              
    2862 00000173               .sect   ".text"
    2863                      .global _PWM_setDeadBandRisingEdgeDelay
    2864              
    2865              $C$DW$263       .dwtag  DW_TAG_subprogram, DW_AT_name("PWM_setDeadBandRisingEdgeDelay")
    2866                      .dwattr $C$DW$263, DW_AT_low_pc(_PWM_setDeadBandRisingEdgeDelay)
    2867                      .dwattr $C$DW$263, DW_AT_high_pc(0x00)
    2868                      .dwattr $C$DW$263, DW_AT_TI_symbol_name("_PWM_setDeadBandRisingEdgeDelay")
    2869                      .dwattr $C$DW$263, DW_AT_external
    2870                      .dwattr $C$DW$263, DW_AT_TI_begin_file("D:/victor TI/Customer issue/Zero/4inOne/Code/sw/drivers/pwm/s
    2871                      .dwattr $C$DW$263, DW_AT_TI_begin_line(0x3e5)
    2872                      .dwattr $C$DW$263, DW_AT_TI_begin_column(0x06)
    2873                      .dwattr $C$DW$263, DW_AT_TI_max_frame_size(-2)
    2874                      .dwpsn  file "D:/victor TI/Customer issue/Zero/4inOne/Code/sw/drivers/pwm/src/32b/f28x/f2802x/pwm.c",
    2875              
    2876                      .dwfde $C$DW$CIE, _PWM_setDeadBandRisingEdgeDelay
    2877              $C$DW$264       .dwtag  DW_TAG_formal_parameter, DW_AT_name("pwmHandle")
    2878                      .dwattr $C$DW$264, DW_AT_TI_symbol_name("_pwmHandle")
    2879                      .dwattr $C$DW$264, DW_AT_type(*$C$DW$T$33)
    2880                      .dwattr $C$DW$264, DW_AT_location[DW_OP_reg12]
    2881              $C$DW$265       .dwtag  DW_TAG_formal_parameter, DW_AT_name("delay")
    2882                      .dwattr $C$DW$265, DW_AT_TI_symbol_name("_delay")
    2883                      .dwattr $C$DW$265, DW_AT_type(*$C$DW$T$146)
    2884                      .dwattr $C$DW$265, DW_AT_location[DW_OP_reg0]
    2885              
    2886              ;***************************************************************
    2887              ;* FNAME: _PWM_setDeadBandRisingEdgeDelay FR SIZE:   0           *
    2888              ;*                                                             *
    2889              ;* FUNCTION ENVIRONMENT                                        *
    2890              ;*                                                             *
    2891              ;* FUNCTION PROPERTIES                                         *
    2892              ;*                            0 Parameter,  0 Auto,  0 SOE     *
    2893              ;***************************************************************
    2894              
    2895              _PWM_setDeadBandRisingEdgeDelay:
    2896              ;* AR4   assigned to _pwmHandle
    2897              $C$DW$266       .dwtag  DW_TAG_variable, DW_AT_name("pwmHandle")
    2898                      .dwattr $C$DW$266, DW_AT_TI_symbol_name("_pwmHandle")
    2899                      .dwattr $C$DW$266, DW_AT_type(*$C$DW$T$127)
    2900                      .dwattr $C$DW$266, DW_AT_location[DW_OP_reg12]
    2901              ;* AL    assigned to _delay
    2902              $C$DW$267       .dwtag  DW_TAG_variable, DW_AT_name("delay")
    2903                      .dwattr $C$DW$267, DW_AT_TI_symbol_name("_delay")
    2904                      .dwattr $C$DW$267, DW_AT_type(*$C$DW$T$146)
    2905                      .dwattr $C$DW$267, DW_AT_location[DW_OP_reg0]
    2906                      .dwcfi  cfa_offset, -2
    2907                      .dwcfi  save_reg_to_mem, 26, 0
    2908                      .dwcfi  save_reg_to_reg, 78, 26
    2909                      .dwpsn  file "D:/victor TI/Customer issue/Zero/4inOne/Code/sw/drivers/pwm/src/32b/f28x/f2802x/pwm.c",
TMS320C2000 Assembler PC v6.2.3 Mon Aug 03 18:20:51 2015

Tools Copyright (c) 1996-2013 Texas Instruments Incorporated
C:\Users\a0220341\AppData\Local\Temp\3112010                         PAGE   55

    2910 00000173 D010          MOVB      XAR0,#16              ; [CPU_] |1002| 
    2911 00000174 9694          MOV       *+XAR4[AR0],AL        ; [CPU_] |1002| 
    2912              $C$DW$268       .dwtag  DW_TAG_TI_branch
    2913                      .dwattr $C$DW$268, DW_AT_low_pc(0x00)
    2914                      .dwattr $C$DW$268, DW_AT_TI_return
    2915 00000175 0006          LRETR     ; [CPU_] 
    2916                      ; return occurs ; [] 
    2917                      .dwattr $C$DW$263, DW_AT_TI_end_file("D:/victor TI/Customer issue/Zero/4inOne/Code/sw/drivers/pwm/src
    2918                      .dwattr $C$DW$263, DW_AT_TI_end_line(0x3ed)
    2919                      .dwattr $C$DW$263, DW_AT_TI_end_column(0x01)
    2920                      .dwendentry
    2921                      .dwendtag $C$DW$263
    2922              
    2923 00000176               .sect   ".text"
    2924                      .global _PWM_setDeadBandPolarity
    2925              
    2926              $C$DW$269       .dwtag  DW_TAG_subprogram, DW_AT_name("PWM_setDeadBandPolarity")
    2927                      .dwattr $C$DW$269, DW_AT_low_pc(_PWM_setDeadBandPolarity)
    2928                      .dwattr $C$DW$269, DW_AT_high_pc(0x00)
    2929                      .dwattr $C$DW$269, DW_AT_TI_symbol_name("_PWM_setDeadBandPolarity")
    2930                      .dwattr $C$DW$269, DW_AT_external
    2931                      .dwattr $C$DW$269, DW_AT_TI_begin_file("D:/victor TI/Customer issue/Zero/4inOne/Code/sw/drivers/pwm/s
    2932                      .dwattr $C$DW$269, DW_AT_TI_begin_line(0x3d6)
    2933                      .dwattr $C$DW$269, DW_AT_TI_begin_column(0x06)
    2934                      .dwattr $C$DW$269, DW_AT_TI_max_frame_size(-2)
    2935                      .dwpsn  file "D:/victor TI/Customer issue/Zero/4inOne/Code/sw/drivers/pwm/src/32b/f28x/f2802x/pwm.c",
    2936              
    2937                      .dwfde $C$DW$CIE, _PWM_setDeadBandPolarity
    2938              $C$DW$270       .dwtag  DW_TAG_formal_parameter, DW_AT_name("pwmHandle")
    2939                      .dwattr $C$DW$270, DW_AT_TI_symbol_name("_pwmHandle")
    2940                      .dwattr $C$DW$270, DW_AT_type(*$C$DW$T$33)
    2941                      .dwattr $C$DW$270, DW_AT_location[DW_OP_reg12]
    2942              $C$DW$271       .dwtag  DW_TAG_formal_parameter, DW_AT_name("polarity")
    2943                      .dwattr $C$DW$271, DW_AT_TI_symbol_name("_polarity")
    2944                      .dwattr $C$DW$271, DW_AT_type(*$C$DW$T$74)
    2945                      .dwattr $C$DW$271, DW_AT_location[DW_OP_reg0]
    2946              
    2947              ;***************************************************************
    2948              ;* FNAME: _PWM_setDeadBandPolarity      FR SIZE:   0           *
    2949              ;*                                                             *
    2950              ;* FUNCTION ENVIRONMENT                                        *
    2951              ;*                                                             *
    2952              ;* FUNCTION PROPERTIES                                         *
    2953              ;*                            0 Parameter,  0 Auto,  0 SOE     *
    2954              ;***************************************************************
    2955              
    2956              _PWM_setDeadBandPolarity:
    2957              ;* AR4   assigned to _pwmHandle
    2958              $C$DW$272       .dwtag  DW_TAG_variable, DW_AT_name("pwmHandle")
    2959                      .dwattr $C$DW$272, DW_AT_TI_symbol_name("_pwmHandle")
    2960                      .dwattr $C$DW$272, DW_AT_type(*$C$DW$T$127)
    2961                      .dwattr $C$DW$272, DW_AT_location[DW_OP_reg12]
    2962              ;* AL    assigned to _polarity
    2963              $C$DW$273       .dwtag  DW_TAG_variable, DW_AT_name("polarity")
    2964                      .dwattr $C$DW$273, DW_AT_TI_symbol_name("_polarity")
TMS320C2000 Assembler PC v6.2.3 Mon Aug 03 18:20:51 2015

Tools Copyright (c) 1996-2013 Texas Instruments Incorporated
C:\Users\a0220341\AppData\Local\Temp\3112010                         PAGE   56

    2965                      .dwattr $C$DW$273, DW_AT_type(*$C$DW$T$74)
    2966                      .dwattr $C$DW$273, DW_AT_location[DW_OP_reg0]
    2967                      .dwcfi  cfa_offset, -2
    2968                      .dwcfi  save_reg_to_mem, 26, 0
    2969                      .dwcfi  save_reg_to_reg, 78, 26
    2970                      .dwpsn  file "D:/victor TI/Customer issue/Zero/4inOne/Code/sw/drivers/pwm/src/32b/f28x/f2802x/pwm.c",
    2971 00000176 83A4          MOVL      XAR5,XAR4             ; [CPU_] |988| 
    2972 00000177 DD0F          ADDB      XAR5,#15              ; [CPU_] |988| 
    2973 00000178 18C5          AND       *+XAR5[0],#0xfff3     ; [CPU_] |988| 
         00000179 FFF3 
    2974                      .dwpsn  file "D:/victor TI/Customer issue/Zero/4inOne/Code/sw/drivers/pwm/src/32b/f28x/f2802x/pwm.c",
    2975 0000017a DC0F          ADDB      XAR4,#15              ; [CPU_] |991| 
    2976 0000017b 98C4          OR        *+XAR4[0],AL          ; [CPU_] |991| 
    2977              $C$DW$274       .dwtag  DW_TAG_TI_branch
    2978                      .dwattr $C$DW$274, DW_AT_low_pc(0x00)
    2979                      .dwattr $C$DW$274, DW_AT_TI_return
    2980 0000017c 0006          LRETR     ; [CPU_] 
    2981                      ; return occurs ; [] 
    2982                      .dwattr $C$DW$269, DW_AT_TI_end_file("D:/victor TI/Customer issue/Zero/4inOne/Code/sw/drivers/pwm/src
    2983                      .dwattr $C$DW$269, DW_AT_TI_end_line(0x3e2)
    2984                      .dwattr $C$DW$269, DW_AT_TI_end_column(0x01)
    2985                      .dwendentry
    2986                      .dwendtag $C$DW$269
    2987              
    2988 0000017d               .sect   ".text"
    2989                      .global _PWM_setDeadBandOutputMode
    2990              
    2991              $C$DW$275       .dwtag  DW_TAG_subprogram, DW_AT_name("PWM_setDeadBandOutputMode")
    2992                      .dwattr $C$DW$275, DW_AT_low_pc(_PWM_setDeadBandOutputMode)
    2993                      .dwattr $C$DW$275, DW_AT_high_pc(0x00)
    2994                      .dwattr $C$DW$275, DW_AT_TI_symbol_name("_PWM_setDeadBandOutputMode")
    2995                      .dwattr $C$DW$275, DW_AT_external
    2996                      .dwattr $C$DW$275, DW_AT_TI_begin_file("D:/victor TI/Customer issue/Zero/4inOne/Code/sw/drivers/pwm/s
    2997                      .dwattr $C$DW$275, DW_AT_TI_begin_line(0x3c7)
    2998                      .dwattr $C$DW$275, DW_AT_TI_begin_column(0x06)
    2999                      .dwattr $C$DW$275, DW_AT_TI_max_frame_size(-2)
    3000                      .dwpsn  file "D:/victor TI/Customer issue/Zero/4inOne/Code/sw/drivers/pwm/src/32b/f28x/f2802x/pwm.c",
    3001              
    3002                      .dwfde $C$DW$CIE, _PWM_setDeadBandOutputMode
    3003              $C$DW$276       .dwtag  DW_TAG_formal_parameter, DW_AT_name("pwmHandle")
    3004                      .dwattr $C$DW$276, DW_AT_TI_symbol_name("_pwmHandle")
    3005                      .dwattr $C$DW$276, DW_AT_type(*$C$DW$T$33)
    3006                      .dwattr $C$DW$276, DW_AT_location[DW_OP_reg12]
    3007              $C$DW$277       .dwtag  DW_TAG_formal_parameter, DW_AT_name("outputMode")
    3008                      .dwattr $C$DW$277, DW_AT_TI_symbol_name("_outputMode")
    3009                      .dwattr $C$DW$277, DW_AT_type(*$C$DW$T$71)
    3010                      .dwattr $C$DW$277, DW_AT_location[DW_OP_reg0]
    3011              
    3012              ;***************************************************************
    3013              ;* FNAME: _PWM_setDeadBandOutputMode    FR SIZE:   0           *
    3014              ;*                                                             *
    3015              ;* FUNCTION ENVIRONMENT                                        *
    3016              ;*                                                             *
    3017              ;* FUNCTION PROPERTIES                                         *
    3018              ;*                            0 Parameter,  0 Auto,  0 SOE     *
TMS320C2000 Assembler PC v6.2.3 Mon Aug 03 18:20:51 2015

Tools Copyright (c) 1996-2013 Texas Instruments Incorporated
C:\Users\a0220341\AppData\Local\Temp\3112010                         PAGE   57

    3019              ;***************************************************************
    3020              
    3021              _PWM_setDeadBandOutputMode:
    3022              ;* AR4   assigned to _pwmHandle
    3023              $C$DW$278       .dwtag  DW_TAG_variable, DW_AT_name("pwmHandle")
    3024                      .dwattr $C$DW$278, DW_AT_TI_symbol_name("_pwmHandle")
    3025                      .dwattr $C$DW$278, DW_AT_type(*$C$DW$T$127)
    3026                      .dwattr $C$DW$278, DW_AT_location[DW_OP_reg12]
    3027              ;* AL    assigned to _outputMode
    3028              $C$DW$279       .dwtag  DW_TAG_variable, DW_AT_name("outputMode")
    3029                      .dwattr $C$DW$279, DW_AT_TI_symbol_name("_outputMode")
    3030                      .dwattr $C$DW$279, DW_AT_type(*$C$DW$T$71)
    3031                      .dwattr $C$DW$279, DW_AT_location[DW_OP_reg0]
    3032                      .dwcfi  cfa_offset, -2
    3033                      .dwcfi  save_reg_to_mem, 26, 0
    3034                      .dwcfi  save_reg_to_reg, 78, 26
    3035                      .dwpsn  file "D:/victor TI/Customer issue/Zero/4inOne/Code/sw/drivers/pwm/src/32b/f28x/f2802x/pwm.c",
    3036 0000017d 83A4          MOVL      XAR5,XAR4             ; [CPU_] |973| 
    3037 0000017e DD0F          ADDB      XAR5,#15              ; [CPU_] |973| 
    3038 0000017f 18C5          AND       *+XAR5[0],#0xfffc     ; [CPU_] |973| 
         00000180 FFFC 
    3039                      .dwpsn  file "D:/victor TI/Customer issue/Zero/4inOne/Code/sw/drivers/pwm/src/32b/f28x/f2802x/pwm.c",
    3040 00000181 DC0F          ADDB      XAR4,#15              ; [CPU_] |976| 
    3041 00000182 98C4          OR        *+XAR4[0],AL          ; [CPU_] |976| 
    3042              $C$DW$280       .dwtag  DW_TAG_TI_branch
    3043                      .dwattr $C$DW$280, DW_AT_low_pc(0x00)
    3044                      .dwattr $C$DW$280, DW_AT_TI_return
    3045 00000183 0006          LRETR     ; [CPU_] 
    3046                      ; return occurs ; [] 
    3047                      .dwattr $C$DW$275, DW_AT_TI_end_file("D:/victor TI/Customer issue/Zero/4inOne/Code/sw/drivers/pwm/src
    3048                      .dwattr $C$DW$275, DW_AT_TI_end_line(0x3d3)
    3049                      .dwattr $C$DW$275, DW_AT_TI_end_column(0x01)
    3050                      .dwendentry
    3051                      .dwendtag $C$DW$275
    3052              
    3053 00000184               .sect   ".text"
    3054                      .global _PWM_setDeadBandInputMode
    3055              
    3056              $C$DW$281       .dwtag  DW_TAG_subprogram, DW_AT_name("PWM_setDeadBandInputMode")
    3057                      .dwattr $C$DW$281, DW_AT_low_pc(_PWM_setDeadBandInputMode)
    3058                      .dwattr $C$DW$281, DW_AT_high_pc(0x00)
    3059                      .dwattr $C$DW$281, DW_AT_TI_symbol_name("_PWM_setDeadBandInputMode")
    3060                      .dwattr $C$DW$281, DW_AT_external
    3061                      .dwattr $C$DW$281, DW_AT_TI_begin_file("D:/victor TI/Customer issue/Zero/4inOne/Code/sw/drivers/pwm/s
    3062                      .dwattr $C$DW$281, DW_AT_TI_begin_line(0x3b8)
    3063                      .dwattr $C$DW$281, DW_AT_TI_begin_column(0x06)
    3064                      .dwattr $C$DW$281, DW_AT_TI_max_frame_size(-2)
    3065                      .dwpsn  file "D:/victor TI/Customer issue/Zero/4inOne/Code/sw/drivers/pwm/src/32b/f28x/f2802x/pwm.c",
    3066              
    3067                      .dwfde $C$DW$CIE, _PWM_setDeadBandInputMode
    3068              $C$DW$282       .dwtag  DW_TAG_formal_parameter, DW_AT_name("pwmHandle")
    3069                      .dwattr $C$DW$282, DW_AT_TI_symbol_name("_pwmHandle")
    3070                      .dwattr $C$DW$282, DW_AT_type(*$C$DW$T$33)
    3071                      .dwattr $C$DW$282, DW_AT_location[DW_OP_reg12]
    3072              $C$DW$283       .dwtag  DW_TAG_formal_parameter, DW_AT_name("inputMode")
TMS320C2000 Assembler PC v6.2.3 Mon Aug 03 18:20:51 2015

Tools Copyright (c) 1996-2013 Texas Instruments Incorporated
C:\Users\a0220341\AppData\Local\Temp\3112010                         PAGE   58

    3073                      .dwattr $C$DW$283, DW_AT_TI_symbol_name("_inputMode")
    3074                      .dwattr $C$DW$283, DW_AT_type(*$C$DW$T$68)
    3075                      .dwattr $C$DW$283, DW_AT_location[DW_OP_reg0]
    3076              
    3077              ;***************************************************************
    3078              ;* FNAME: _PWM_setDeadBandInputMode     FR SIZE:   0           *
    3079              ;*                                                             *
    3080              ;* FUNCTION ENVIRONMENT                                        *
    3081              ;*                                                             *
    3082              ;* FUNCTION PROPERTIES                                         *
    3083              ;*                            0 Parameter,  0 Auto,  0 SOE     *
    3084              ;***************************************************************
    3085              
    3086              _PWM_setDeadBandInputMode:
    3087              ;* AR4   assigned to _pwmHandle
    3088              $C$DW$284       .dwtag  DW_TAG_variable, DW_AT_name("pwmHandle")
    3089                      .dwattr $C$DW$284, DW_AT_TI_symbol_name("_pwmHandle")
    3090                      .dwattr $C$DW$284, DW_AT_type(*$C$DW$T$127)
    3091                      .dwattr $C$DW$284, DW_AT_location[DW_OP_reg12]
    3092              ;* AL    assigned to _inputMode
